(dp0
S''
p1
(lp2
S'   '
p3
aS'UNDEFINED                '
p4
aS' '
p5
aS'counts'
p6
ag5
aS'Undefined Variable'
p7
asS'4303'
p8
(lp9
S'fCO2a'
p10
aS'Fugacity of CO2 in Air'
p11
aS'fCO2a'
p12
aS'uatm'
p13
aS'f9.1'
p14
aS'Underway CO2 obs'
p15
asS'4302'
p16
(lp17
S'XCO2w'
p18
aS'Mole Fraction of CO2 in Water'
p19
aS'XCO2'
p20
aS'ppm'
p21
aS'f9.1'
p22
aS'Underway CO2 obs'
p23
asS'4301'
p24
(lp25
S'XCO2a'
p26
aS'Mole Fraction of CO2 in Air'
p27
aS'XCO2'
p28
aS'ppm'
p29
aS'f9.1'
p30
aS'Underway CO2 obs'
p31
asS'4026'
p32
(lp33
S'rpres'
p34
aS'RAW PRESSURE (PAROS,COMP,AB)'
p35
aS'pres'
p36
aS'counts'
p37
aS'i10'
p38
aS'Paroscientific, temp. compensated, A,B calibration'
p39
asS'4027'
p40
(lp41
S'rpres'
p42
aS'RAW PRESSURE (PAROS,UNCOMP,AB)'
p43
aS'pres'
p44
aS'counts'
p45
aS'i10'
p46
aS'Paroscientific, not temp. compensated, A,B calibration'
p47
asS'1268'
p48
(lp49
S'BTRa'
p50
aS'BT Average Range            '
p51
ag5
aS'm'
p52
ag5
aS'ADCP Btm. Trk. Range Average'
p53
asS'4022'
p54
(lp55
S'P   '
p56
aS'INTERVAL PRESSURE        '
p57
aS'pres'
p58
aS'mbar'
p59
aS'f10.3'
p60
aS'interval pressure measurement, Seadata tripod'
p61
asS'4023'
p62
(lp63
S'P   '
p64
aS'AVERAGE BURST PRESSURE   '
p65
aS'pres'
p66
aS'mbar'
p67
aS'f10.3'
p68
aS'average of burst pressures'
p69
asS'4020'
p70
(lp71
S'P   '
p72
aS'AVERAGE RELATIVE PRESSURE'
p73
aS'pres'
p74
aS'mbar'
p75
aS'f10.5'
p76
aS'burst pressure minus interval pressure, Seadata tripod'
p77
asS'4028'
p78
(lp79
S'rpres'
p80
aS'RAW PRESSURE (PAROS,COMP,CD)'
p81
aS'pres'
p82
aS'counts'
p83
aS'i10'
p84
aS'Paroscientific, temp. compensated, C,D calibration'
p85
asS'4029'
p86
(lp87
S'rpres'
p88
aS'RAW PRESSURE (PAROS,UNCOMP,CD)'
p89
aS'pres'
p90
aS'counts'
p91
aS'i10'
p92
aS'Paroscientific, not temp. compensated, C,D calibration'
p93
asS'1948'
p94
(lp95
S'NO3   '
p96
aS'Soluble Supermicron Aerosol Nitrate              '
p97
ag5
aS'ug/m^3'
p98
ag5
ag5
asS'1949'
p99
(lp100
S'NO3   '
p101
aS'Soluble Sub10micron Aerosol Nitrate              '
p102
ag5
aS'ug/m^3'
p103
ag5
ag5
asS'4305'
p104
(lp105
S'pCO2a'
p106
aS'Partial Pressure of CO2 in Air'
p107
aS'pCO2a'
p108
aS'uatm'
p109
aS'f9.1'
p110
aS'Underway CO2 obs'
p111
asS'1942'
p112
(lp113
S'nssCa '
p114
aS'Soluble Supermicron Aerosol non-Seasalt Calcium  '
p115
ag5
aS'ug/m^3'
p116
ag5
ag5
asS'1943'
p117
(lp118
S'nssCa '
p119
aS'Soluble Sub10micron Aerosol non-Seasalt Calcium  '
p120
ag5
aS'ug/m^3'
p121
ag5
ag5
asS'1940'
p122
(lp123
S'nssMg '
p124
aS'Soluble Sub10micron Aerosol non-Seasalt Magnesium'
p125
ag5
aS'ug/m^3'
p126
ag5
ag5
asS'1941'
p127
(lp128
S'nssCa '
p129
aS'Soluble Submicron Aerosol non-Seasalt Calcium    '
p130
ag5
aS'ug/m^3'
p131
ag5
ag5
asS'1946'
p132
(lp133
S'Cl    '
p134
aS'Soluble Sub10micron Aerosol Chloride             '
p135
ag5
aS'ug/m^3'
p136
ag5
ag5
asS'1947'
p137
(lp138
S'NO3   '
p139
aS'Soluble Submicron Aerosol Nitrate                '
p140
ag5
aS'ug/m^3'
p141
ag5
ag5
asS'1944'
p142
(lp143
S'Cl    '
p144
aS'Soluble Submicron Aerosol Chloride               '
p145
ag5
aS'ug/m^3'
p146
ag5
ag5
asS'1945'
p147
(lp148
S'Cl    '
p149
aS'Soluble Supermicron Aerosol Chloride             '
p150
ag5
aS'ug/m^3'
p151
ag5
ag5
asS'344'
p152
(lp153
S'Ut '
p154
aS'TRACK NORMAL GEOST (CM/S)'
p155
aS'un'
p156
aS'cm s-1'
p157
ag5
aS'geostrophic vel normal to track'
p158
asS'0'
p159
(lp160
S'   '
p161
aS'Undefined                '
p162
aS'generic'
p163
aS'units'
p164
aS'format'
p165
aS'Undefined Variable'
p166
asS'340'
p167
(lp168
S'Ug '
p169
aS'GEOSTROPHIC ZONAL (CM/S) '
p170
ag5
aS'cm s-1'
p171
ag5
aS'geostrophic'
p172
asS'341'
p173
(lp174
S'Vg '
p175
aS'GEOSTR MERIDIONAL (CM/S) '
p176
ag5
aS'cm s-1'
p177
ag5
aS'geostrophic'
p178
asS'342'
p179
(lp180
S'Umg'
p181
aS'Umodel-Ugeost (cm/s)     '
p182
ag5
aS'cm s-1'
p183
ag5
ag1
asS'810'
p184
(lp185
S'SDD'
p186
aS'STAND. DEV. (DYN.HT)     '
p187
ag5
ag5
ag5
ag1
asS'4309'
p188
(lp189
S'EqT'
p190
aS'Equilibrator Temperature'
p191
aS'degC'
p192
aS'f9.3'
p193
aS'Underway CO2 obs (ITS-90)'
p194
asS'4308'
p195
(lp196
S'dpCO2'
p197
aS'Delta pCO2'
p198
aS'dpCO2'
p199
aS'uatm'
p200
aS'f9.1'
p201
aS'Underway CO2 obs'
p202
asS'710'
p203
(lp204
S'N  '
p205
aS'NUMBER OF POINTS         '
p206
ag5
ag5
ag5
ag1
asS'421'
p207
(lp208
S'WV '
p209
aS'WIND V (CM/S)            '
p210
aS'v'
p211
aS'cm s-1'
p212
ag5
aS'oceanographic sense (going to)'
p213
asS'423'
p214
(lp215
S'WV '
p216
aS'WIND V (M/S)             '
p217
ag211
aS'm s-1'
p218
ag5
aS'oceanographic sense (going to)'
p219
asS'1701'
p220
(lp221
S'F11'
p222
aS'CFC-11 (PMOL/KG)         '
p223
aS'f11'
p224
aS'pmol/kg'
p225
aS'f10.6'
p226
aS'trichloroflouoromethane'
p227
asS'1702'
p228
(lp229
S'F12'
p230
aS'CFC-12 (PMOL/KG)         '
p231
aS'f12'
p232
aS'pmol/kg'
p233
aS'f10.6'
p234
aS'dichlorofluoromethane'
p235
asS'422'
p236
(lp237
S'WU '
p238
aS'WIND U (M/S)             '
p239
aS'u'
p240
aS'm s-1'
p241
ag5
aS'oceanographic sense (going to)'
p242
asS'4304'
p243
(lp244
S'fCO2w'
p245
aS'Fugacity of CO2 in Water'
p246
aS'fCO2w'
p247
aS'uatm'
p248
aS'f9.1'
p249
aS'Underway CO2 obs'
p250
asS'4225'
p251
(lp252
S'SILCAT '
p253
aS'Silicate'
p254
aS'SiO4          '
p255
aS'umol/kg'
p256
aS'f9.2'
p257
ag1
asS'3007'
p258
(lp259
S'mWB'
p260
aS'manual wet bulb temp'
p261
aS'wbulb'
p262
aS'degree C'
p263
aS'f10.2'
p264
aS'manual wet bulb temp'
p265
asS'1510'
p266
(lp267
S'LAT'
p268
aS'END LATITUDE             '
p269
aS'end_lat'
p270
aS'degree_north'
p271
aS'f10.4'
p272
aS'N positive S negative'
p273
asS'3029'
p274
(lp275
S'ocWSA'
p276
aS'OC Wind Spd Avg'
p277
aS'WS'
p278
aS'knots'
p279
aS'f10.2'
p280
aS'OC Wind Spd Avg'
p281
asS'3028'
p282
(lp283
S'ocWDA'
p284
aS'OC Wind Dir Avg'
p285
aS'WD'
p286
aS'degree'
p287
aS'f10.2'
p288
aS'OC Wind Dir Avg'
p289
asS'3027'
p290
(lp291
S'ocWS'
p292
aS'oc wind speed'
p293
aS'WS'
p294
aS'knots'
p295
aS'f10.2'
p296
aS'oc wind speed'
p297
asS'3026'
p298
(lp299
S'ocWD'
p300
aS'oc true direction'
p301
aS'WD'
p302
aS'degree'
p303
aS'f10.2'
p304
aS'oc true direction'
p305
asS'3025'
p306
(lp307
S'rAT'
p308
aS'rm young air temp'
p309
aS'atemp'
p310
aS'degree C'
p311
aS'f10.2'
p312
aS'rm young air temp'
p313
asS'3024'
p314
(lp315
S'rWD'
p316
aS'rm young wind dir'
p317
aS'WD'
p318
aS'degree'
p319
aS'f10.2'
p320
aS'rm young wind dir'
p321
asS'3023'
p322
(lp323
S'rWS'
p324
aS'rm young wind speed'
p325
aS'WS'
p326
aS'knots'
p327
aS'f10.2'
p328
aS'rm young wind speed'
p329
asS'3022'
p330
(lp331
S'avS'
p332
aS'avg salinity'
p333
aS'S'
p334
aS'ppt'
p335
aS'f10.2'
p336
aS'avg salinity'
p337
asS'3021'
p338
(lp339
S'avT'
p340
aS'avg temperature'
p341
aS'T'
p342
aS'degree C'
p343
aS'f10.2'
p344
aS'avg temperature'
p345
asS'3020'
p346
(lp347
S'avC'
p348
aS'avg conductivity'
p349
aS'C'
p350
aS'mmhos'
p351
aS'f10.2'
p352
aS'avg conductivity'
p353
asS'1409'
p354
(lp355
S'rvane'
p356
aS'ENCODED VANE           '
p357
aS'vane'
p358
aS'128.lvl.binary'
p359
aS'i10'
p360
aS'vacm grey code vane'
p361
asS'1408'
p362
(lp363
S'rcomp'
p364
aS'ENCODED COMPASS        '
p365
aS'comp'
p366
aS'128.lvl.binary'
p367
aS'i10'
p368
aS'vacm grey code compass'
p369
asS'520'
p370
(lp371
S'S  '
p372
aS'Distance                 '
p373
aS'dist'
p374
aS'km'
p375
aS'f8.2'
p376
ag1
asS'521'
p377
(lp378
S'AD '
p379
aS'Alongshore Distance      '
p380
aS'dist'
p381
aS'km'
p382
aS'f8.2'
p383
ag1
asS'522'
p384
(lp385
S'OD '
p386
aS'Offshore Distance        '
p387
aS'dist'
p388
aS'km'
p389
aS'f8.2'
p390
ag1
asS'1403'
p391
(lp392
S'van '
p393
aS'VANE ANGLE              '
p394
aS'vane'
p395
aS'degrees'
p396
aS'f10.1'
p397
aS'current orientation to instrument'
p398
asS'1402'
p399
(lp400
S'van '
p401
aS'AMP vane                '
p402
aS'vane'
p403
aS'degrees'
p404
aS'f10.2'
p405
aS'vane reading'
p406
asS'1401'
p407
(lp408
S'hdg '
p409
aS'AMP compass heading     '
p410
aS'comp'
p411
aS'degrees'
p412
aS'f10.2'
p413
aS'compass heading'
p414
asS'1407'
p415
(lp416
S'comp'
p417
aS'RAW COMPASS VOLTS (MIDAS)'
p418
aS'comp'
p419
aS'counts'
p420
aS'i10'
p421
aS'MIDAS raw compass voltage'
p422
asS'1406'
p423
(lp424
S'comp'
p425
aS'ORIENTATION (BASS)      '
p426
aS'comp'
p427
aS'degrees'
p428
aS'f10.3'
p429
aS'orientation of BASS pods'
p430
asS'1404'
p431
(lp432
S'comp'
p433
aS'COMPASS (m)             '
p434
aS'comp'
p435
aS'degreeM'
p436
aS'f10.1'
p437
aS'instrument orientation to magnetic north'
p438
asS'1234'
p439
(lp440
S'Sv2 '
p441
aS'Backscattering Strength Beam 2'
p442
aS'Sv'
p443
aS'dB'
p444
ag5
aS'ADCP Bksctr., ref to noise cal'
p445
asS'1235'
p446
(lp447
S'Sv3 '
p448
aS'Backscattering Strength Beam 3'
p449
aS'Sv'
p450
aS'dB'
p451
ag5
aS'ADCP Bksctr., ref to noise cal'
p452
asS'449'
p453
(lp454
S'GP '
p455
aS'Geopotential             '
p456
aS'GP'
p457
aS'm2/s2'
p458
aS'f10.2 '
p459
aS'geopotential energy'
p460
asS'448'
p461
(lp462
S'Txy'
p463
aS'TOTAL WIND STRESS        '
p464
ag5
ag5
ag5
aS'sqrt(Tx**2 + Ty**2) (Prog WNDSTR)'
p465
asS'4211'
p466
(lp467
S'CTDTMP '
p468
aS'Temperature, ITS-90    '
p469
aS'temp'
p470
aS'degC'
p471
aS'f9.4'
p472
ag1
asS'1231'
p473
(lp474
S'Sv  '
p475
aS'Mean Backscattering Strength'
p476
aS'Sv'
p477
aS'dB'
p478
ag5
aS'ADCP Mn Bksctr, ref to last bin'
p479
asS'1232'
p480
(lp481
S'Sv  '
p482
aS'Mean Backscattering Strength'
p483
aS'Sv'
p484
aS'dB'
p485
ag5
aS'ADCP Mn Bksctr, ref to noise cal'
p486
asS'1233'
p487
(lp488
S'Sv1 '
p489
aS'Backscattering Strength Beam 1'
p490
aS'Sv'
p491
aS'dB'
p492
ag5
aS'ADCP Bksctr., ref to noise cal'
p493
asS'443'
p494
(lp495
S'PTy'
p496
aS'MERID PSEUDO WIND STRESS '
p497
ag5
aS'm2 s-2'
p498
ag5
aS'Meridional pseudo wind stress'
p499
asS'442'
p500
(lp501
S'PTx'
p502
aS'ZONAL PSEUDO WIND STRESS '
p503
ag5
aS'm2 s-2'
p504
ag5
aS'Zonal pseudo wind stress'
p505
asS'441'
p506
(lp507
S'T-Y'
p508
aS'MERIDIONAL WIND STRESS   '
p509
ag211
aS'dyne cm-2'
p510
ag5
aS'Meridional Wind Stress'
p511
asS'440'
p512
(lp513
S'T-X'
p514
aS'ZONAL WIND STRESS        '
p515
ag240
aS'dyne cm-2'
p516
ag5
aS'Zonal Wind Stress'
p517
asS'447'
p518
(lp519
S' Ty'
p520
aS'MERID WIND STRESS        '
p521
ag5
ag5
ag5
aS'Meridional true wind stress'
p522
asS'446'
p523
(lp524
S' Tx'
p525
aS'ZONAL WIND STRESS        '
p526
ag5
ag5
ag5
aS'Zonal true wind stress'
p527
asS'444'
p528
(lp529
S'Txy'
p530
aS'TOTAL PSEUDO WIND STRESS '
p531
ag5
aS'm2 s-2'
p532
ag5
aS'sqrt(PTx**2 + PTy**2)  (Prog WNDSTR)'
p533
asS'102'
p534
(lp535
S'CL '
p536
aS'PTG CLOCK WORD           '
p537
ag5
ag5
ag5
ag1
asS'103'
p538
(lp539
S'BTL'
p540
aS'NISKIN BOTTLE NUMBER     '
p541
ag5
ag5
ag5
aS'For Bottle files'
p542
asS'100'
p543
(lp544
S'SN '
p545
aS'SCAN NUMBER              '
p546
ag5
ag5
ag5
ag1
asS'101'
p547
(lp548
S'FS '
p549
aS'FRAME SYNC               '
p550
ag5
ag5
ag5
aS'FOR TOPS'
p551
asS'106'
p552
(lp553
S'BAT'
p554
aS'BATTERY VOLTAGE          '
p555
aS'bat'
p556
aS'volts'
p557
aS'f6.2'
p558
ag1
asS'107'
p559
(lp560
S'TRN'
p561
aS'TRANSMISSOMETER VOLTAGE 7'
p562
ag5
ag5
ag5
aS'for P18 CTD data set'
p563
asS'104'
p564
(lp565
S'IQ '
p566
aS'WOCE QUALITY NUMBER      '
p567
ag5
ag5
ag5
aS'See WOCE Document'
p568
asS'105'
p569
(lp570
S'NAV'
p571
aS'NUMBER POINTS IN AVERAGE '
p572
ag5
ag5
ag5
ag1
asS'902'
p573
(lp574
S'Irr'
p575
aS'Irradiance(CTD)          '
p576
ag5
aS'uEin cm-2 s-1'
p577
ag5
ag1
asS'903'
p578
(lp579
S'F  '
p580
aS'Fluorometer (CTD)        '
p581
ag5
aS'mg m-3'
p582
ag5
aS'J.Murray 5/13/92'
p583
asS'900'
p584
(lp585
S'Fvt'
p586
aS'Fluorometer Volts        '
p587
ag5
aS'Volts'
p588
ag5
ag1
asS'38'
p589
(lp590
S'PT '
p591
aS'POTENTIAL TEMP (C)       '
p592
aS'potemp'
p593
ag5
ag5
aS'Potential Temperature (ITS-90)'
p594
asS'906'
p595
(lp596
S'Fch'
p597
aS'Chlorophyll A            '
p598
ag5
aS'ugrams/l'
p599
ag5
aS'(fluorometric) J.Murray 5/9/94'
p600
asS'907'
p601
(lp602
S'Fph'
p603
aS'Phaeopigments      '
p604
ag5
aS'ugrams/l'
p605
ag5
aS'(fluorometric) J.Murray 5/9/94'
p606
asS'904'
p607
(lp608
S'Tr '
p609
aS'Transmissometry (CTD)    '
p610
ag5
aS'%'
p611
ag5
aS'J.Murray 5/13/92'
p612
asS'905'
p613
(lp614
S'PAR'
p615
aS'Photosynthetic Active Radiation'
p616
aS'par'
p617
aS'uEin m-2 s-1'
p618
ag5
aS'J.Murray 5/13/92'
p619
asS'33'
p620
(lp621
S'T  '
p622
aS'CORRECTED TEMPERATURE (C)'
p623
aS'temp'
p624
ag350
aS'f10.4'
p625
aS'corrected for mooring motion'
p626
asS'32'
p627
(lp628
S'T  '
p629
aS'TEMPERATURE (C)          '
p630
aS'temp'
p631
ag350
aS'f10.4'
p632
aS'unknown standard'
p633
asS'31'
p634
(lp635
S'P4 '
p636
aS'POTENTIAL TEMP 4000 (C)  '
p637
aS'potemp'
p638
ag5
ag5
aS'Potential temp with 4000m reference level'
p639
asS'30'
p640
(lp641
S'PT '
p642
aS'POTENTIAL TEMP (C)       '
p643
aS'potemp'
p644
ag5
ag5
aS'PT = Potential Temperature'
p645
asS'36'
p646
(lp647
S'DST'
p648
aS'd(SST)/dt                '
p649
aS'dsst/dt'
p650
aS'C/day'
p651
ag5
ag1
asS'35'
p652
(lp653
S'T2 '
p654
aS'Secondary Temperature    '
p655
aS'temp'
p656
ag350
aS'f10.2'
p657
aS'ITS-1990 Standard'
p658
asS'34'
p659
(lp660
S'T2 '
p661
aS'Secondary Temperature    '
p662
aS'temp'
p663
ag350
aS'f10.2'
p664
aS'IPTS-1968 standard'
p665
asS'1241'
p666
(lp667
S'PGd1'
p668
aS'Percent Good Beam 1         '
p669
ag5
ag5
ag5
aS'ADCP Percent Good Beam 1'
p670
asS'1243'
p671
(lp672
S'PGd3'
p673
aS'Percent Good Beam 3         '
p674
ag5
ag5
ag5
aS'ADCP Percent Good Beam 3'
p675
asS'1242'
p676
(lp677
S'PGd2'
p678
aS'Percent Good Beam 2         '
p679
ag5
ag5
ag5
aS'ADCP Percent Good Beam 2'
p680
asS'1245'
p681
(lp682
S'PG4B'
p683
aS'Percent 4-Beam Solns. Good  '
p684
ag5
ag5
ag5
aS'ADCP Percent 4-Beam Solns. Good'
p685
asS'1244'
p686
(lp687
S'PGd4'
p688
aS'Percent Good Beam 4         '
p689
ag5
ag5
ag5
aS'ADCP Percent Good Beam 4'
p690
asS'1247'
p691
(lp692
S'PGWe'
p693
aS'Percent Error Vel. Good     '
p694
ag5
ag5
ag5
aS'ADCP Percent Error Vel. Good'
p695
asS'1246'
p696
(lp697
S'PG3B'
p698
aS'Percent 3-Beam Solns. Good  '
p699
ag5
ag5
ag5
aS'ADCP Percent 3-Beam Solns. Good'
p700
asS'430'
p701
(lp702
S'WU '
p703
aS'Zonal Wind               '
p704
ag240
aS'm s-1'
p705
ag5
aS'positive toward east'
p706
asS'431'
p707
(lp708
S'WV '
p709
aS'Meridional Wind          '
p710
ag211
aS'm s-1'
p711
ag5
aS'positive toward north'
p712
asS'335'
p713
(lp714
S'V  '
p715
aS'MERIDIONAL CURRENT (CM/S)'
p716
ag211
aS'cm s-1'
p717
ag5
aS'instrument w/r magnetic N'
p718
asS'334'
p719
(lp720
S'U  '
p721
aS'ZONAL CURRENT (CM/S)     '
p722
ag240
aS'cm s-1'
p723
ag5
aS'instrument w/r magnetic N'
p724
asS'337'
p725
(lp726
S'V  '
p727
aS'MERIDIONAL CURRENT (CM/S)'
p728
ag211
aS'cm s-1'
p729
ag5
aS'tracked w/r magnetic N'
p730
asS'336'
p731
(lp732
S'U  '
p733
aS'ZONAL CURRENT (CM/S)     '
p734
ag240
aS'cm s-1'
p735
ag5
aS'tracked w/r magnetic N'
p736
asS'331'
p737
(lp738
S'V  '
p739
aS'MERIDIONAL CURRENT (CM/S)'
p740
ag211
aS'cm s-1'
p741
ag5
aS'measured w/r magnetic N'
p742
asS'330'
p743
(lp744
S'U  '
p745
aS'ZONAL CURRENT (CM/S)     '
p746
ag240
aS'cm s-1'
p747
ag5
aS'measured w/r magnetic N'
p748
asS'333'
p749
(lp750
S'V  '
p751
aS'MERIDIONAL CURRENT (CM/S)'
p752
ag211
aS'cm s-1'
p753
ag5
aS'relative w/r magnetic N'
p754
asS'332'
p755
(lp756
S'U  '
p757
aS'ZONAL CURRENT (CM/S)     '
p758
ag240
aS'cm s-1'
p759
ag5
aS'relative w/r magnetic N'
p760
asS'1372'
p761
(lp762
S'V48'
p763
aS'V Amplitude (CM/S) 48hrs '
p764
aS'v48'
p765
aS'cm s-1'
p766
ag5
aS'measured w/r true N'
p767
asS'1908'
p768
(lp769
S'V08'
p770
aS'VARIABLE 8               '
p771
ag5
ag5
ag5
ag1
asS'1906'
p772
(lp773
S'V06'
p774
aS'VARIABLE 6               '
p775
ag5
ag5
ag5
ag1
asS'1907'
p776
(lp777
S'V07'
p778
aS'VARIABLE 7               '
p779
ag5
ag5
ag5
ag1
asS'1904'
p780
(lp781
S'V04'
p782
aS'VARIABLE 4               '
p783
ag5
ag5
ag5
ag1
asS'1905'
p784
(lp785
S'V05'
p786
aS'VARIABLE 5               '
p787
ag5
ag5
ag5
ag1
asS'1902'
p788
(lp789
S'V02'
p790
aS'VARIABLE 2               '
p791
ag5
ag5
ag5
ag1
asS'1903'
p792
(lp793
S'V03'
p794
aS'VARIABLE 3               '
p795
ag5
ag5
ag5
ag1
asS'1900'
p796
(lp797
S'V00'
p798
aS'VARIABLE 0               '
p799
ag5
ag5
ag5
ag1
asS'1901'
p800
(lp801
S'V01'
p802
aS'VARIABLE 1               '
p803
ag5
ag5
ag5
ag1
asS'854'
p804
(lp805
S'SEP'
p806
aS'STAND. ERR. (PRESS)      '
p807
ag5
ag5
ag5
ag1
asS'850'
p808
(lp809
S'SDP'
p810
aS'STAND. DEV. (PRESS)     '
p811
aS'pres'
p812
aS'mbar'
p813
aS'f10.5'
p814
aS'std. deviation of burst pressures'
p815
asS'851'
p816
(lp817
S'SED'
p818
aS'STAND. ERR. (DYN.HT)     '
p819
ag5
ag5
ag5
ag1
asS'852'
p820
(lp821
S'SET'
p822
aS'STAND. ERR. (TEMP)       '
p823
ag5
ag5
ag5
ag1
asS'853'
p824
(lp825
S'SES'
p826
aS'STAND. ERR. (SAL)        '
p827
ag5
ag5
ag5
ag1
asS'6'
p828
(lp829
S'ISO'
p830
aS'ISOTHERM DEPTH (M)       '
p831
aS'depth'
p832
ag52
ag5
ag1
asS'4263'
p833
(lp834
S'DELC14 '
p835
aS'Delta-C14              '
p836
aS'delc14 '
p837
aS'0/00'
p838
aS'f9.1'
p839
ag1
asS'5001'
p840
(lp841
S'OXYV2'
p842
aS'OXYGEN, SBE43 Voltage             '
p843
aS'ox'
p844
aS'V'
p845
ag5
ag1
asS'4245'
p846
(lp847
S'CFC113 '
p848
aS'Freon-113              '
p849
aS'f113 '
p850
aS'pmol/kg'
p851
aS'f9.3'
p852
ag1
asS'4264'
p853
(lp854
S'DELC14_FLAG'
p855
aS'Delta-C14 Flag     '
p856
aS'flag'
p857
ag5
ag5
ag1
asS'91'
p858
(lp859
S'BV2'
p860
aS'BVF SQUARED (CPH**2)     '
p861
ag5
ag5
ag5
aS'Brunt Vaisala Frequency squared (N*ABS(N))'
p862
asS'90'
p863
(lp864
S'BV '
p865
aS'BVF (CPH)                '
p866
ag5
ag5
ag5
aS'Brunt Vaisala Frequency'
p867
asS'93'
p868
(lp869
S'RI '
p870
aS'RICHARDSONS NUMBER       '
p871
ag5
ag5
ag5
ag1
asS'92'
p872
(lp873
S'R  '
p874
aS'RADIUS OF DEFORM         '
p875
ag5
ag5
ag5
aS'Integral bvf*dz/pi*f'
p876
asS'1991'
p877
(lp878
S'Br    '
p879
aS'Soluble Sub10micron Aerosol Bromide              '
p880
ag5
aS'ug/m^3'
p881
ag5
ag1
asS'1990'
p882
(lp883
S'Br    '
p884
aS'Soluble Supermicron Aerosol Bromide              '
p885
ag5
aS'ug/m^3'
p886
ag5
ag1
asS'9992'
p887
(lp888
S'y'
p889
aS'y axis'
p890
ag889
ag5
ag5
aS'y axis'
p891
asS'5000'
p892
(lp893
S'OXYV1'
p894
aS'OXYGEN, SBE43 Voltage             '
p895
aS'ox'
p896
ag845
ag5
ag1
asS'4075'
p897
(lp898
S'BadBB'
p899
aS'BAD BASS COUNT, AXIS B   '
p900
aS'badbass'
p901
aS'count'
p902
aS'f10.1'
p903
aS'bad data cycle count, BASS pod'
p904
asS'4074'
p905
(lp906
S'BadBA'
p907
aS'BAD BASS COUNT, AXIS A   '
p908
aS'badbass'
p909
aS'count'
p910
aS'f10.1'
p911
aS'bad data cycle count, BASS pod'
p912
asS'4077'
p913
(lp914
S'BadBC'
p915
aS'BAD BASS COUNT, AXIS D   '
p916
aS'badbass'
p917
aS'count'
p918
aS'f10.1'
p919
aS'bad data cycle count, BASS pod'
p920
asS'4076'
p921
(lp922
S'BadBC'
p923
aS'BAD BASS COUNT, AXIS C   '
p924
aS'badbass'
p925
aS'count'
p926
aS'f10.1'
p927
aS'bad data cycle count, BASS pod'
p928
asS'4071'
p929
(lp930
S'BASB'
p931
aS'BASS COUNTS, AXIS B      '
p932
aS'bass'
p933
aS'counts'
p934
aS'f10.1'
p935
aS'basic data of BASS pod'
p936
asS'4070'
p937
(lp938
S'BASA'
p939
aS'BASS COUNTS, AXIS A      '
p940
aS'bass'
p941
aS'counts'
p942
aS'f10.1'
p943
aS'basic data of BASS pod'
p944
asS'4073'
p945
(lp946
S'BASD'
p947
aS'BASS COUNTS, AXIS D      '
p948
aS'bass'
p949
aS'counts'
p950
aS'f10.1'
p951
aS'basic data of BASS pod'
p952
asS'4072'
p953
(lp954
S'BASC'
p955
aS'BASS COUNTS, AXIS C      '
p956
aS'bass'
p957
aS'counts'
p958
aS'f10.1'
p959
aS'basic data of BASS pod'
p960
asS'4265'
p961
(lp962
S'DELC13 '
p963
aS'Delta-C13              '
p964
aS'delc13 '
p965
aS'0/00'
p966
aS'f9.1'
p967
ag1
asS'3013'
p968
(lp969
S'sct'
p970
aS'seacat temperature'
p971
aS'temp'
p972
aS'degree C'
p973
aS'f10.2'
p974
aS'seacat temperature'
p975
asS'3062'
p976
(lp977
S'Hdg'
p978
aS'Ashtech 3DF Heading'
p979
aS'hdg'
p980
aS'degrees_T'
p981
aS'F6.2'
p982
aS'Ship Heading '
p983
asS'3061'
p984
(lp985
S'Hdg'
p986
aS'Gyrocompass Heading'
p987
aS'hdg'
p988
aS'degrees_T'
p989
aS'F6.2'
p990
aS'Ship Heading '
p991
asS'3060'
p992
(lp993
S'Hdg'
p994
aS'Ship Heading       '
p995
aS'hdg'
p996
aS'degrees_T'
p997
aS'F6.2'
p998
aS'Ship Heading '
p999
asS'4030'
p1000
(lp1001
S'rpres'
p1002
aS'RAW PRESSURE (VACM)'
p1003
aS'pres'
p1004
aS'counts'
p1005
aS'i10'
p1006
aS'vacm raw pressure'
p1007
asS'1'
p1008
(lp1009
S'P  '
p1010
aS'PRESSURE (DB)            '
p1011
aS'depth'
p1012
aS'dbar'
p1013
aS'f10.1'
p1014
ag1
asS'1756'
p1015
(lp1016
S'TALK'
p1017
aS'Total Alkalinity        '
p1018
aS'alk'
p1019
aS'meq/l'
p1020
ag5
aS'Total alkalinity from WOD2001'
p1021
asS'1755'
p1022
(lp1023
S'PCO2'
p1024
aS'PARTIAL CO2 PRESSURE (microATM)'
p1025
aS'pco2'
p1026
aS'uATM'
p1027
aS'f6.4'
p1028
aS'Partial CO2 Pressure from Dick Feely'
p1029
asS'1754'
p1030
(lp1031
S'TALK'
p1032
aS'TOTAL ALKALINITY (uM/kg)'
p1033
aS'alk'
p1034
aS'uM/kg'
p1035
aS'f6.1'
p1036
aS'Total Alkalinity from Dick Feely'
p1037
asS'1753'
p1038
(lp1039
S'DIC'
p1040
aS'DISS. INORG. CARBON (umol/kg)'
p1041
aS'dic'
p1042
aS'umol/kg'
p1043
aS'f6.1'
p1044
aS'Dissolved Inorganic Carbon (micromoles/kg) from Dick Feely'
p1045
asS'1752'
p1046
(lp1047
S'NTCO2'
p1048
aS'NORMALIZED TCO2 (uM/kg)'
p1049
aS'ndic'
p1050
aS'uM/kg'
p1051
aS'f6.1'
p1052
aS'Normalized Dissolved Organic Carbon (micromoles/kg)'
p1053
asS'1751'
p1054
(lp1055
S'TCO2'
p1056
aS'TOTAL CO2 (micromoles/kg)'
p1057
aS'dic'
p1058
aS'uM/kg'
p1059
aS'f6.1'
p1060
aS'Dissolved Organic Carbon (micromoles/kg)'
p1061
asS'146'
p1062
(lp1063
S'MHF'
p1064
aS'MERIDIONAL HEAT FLUX     '
p1065
ag5
aS'W m-2'
p1066
ag5
ag1
asS'147'
p1067
(lp1068
S'ZHA'
p1069
aS'ZONAL HEAT ADVECTION     '
p1070
ag5
aS'W m-2'
p1071
ag5
ag1
asS'144'
p1072
(lp1073
S'ZMA'
p1074
aS'ZONAL+MERID HEAT ADVECT  '
p1075
ag5
aS'W m-2'
p1076
ag5
ag1
asS'145'
p1077
(lp1078
S'VHF'
p1079
aS'VERTICAL HEAT FLUX       '
p1080
ag5
aS'W m-2'
p1081
ag5
ag1
asS'142'
p1082
(lp1083
S'QN '
p1084
aS'NET HEATING              '
p1085
ag5
aS'W m-2'
p1086
ag5
ag1
asS'143'
p1087
(lp1088
S'VMF'
p1089
aS'VERTICAL+MERID HEAT FLUX '
p1090
ag5
aS'W m-2'
p1091
ag5
ag1
asS'140'
p1092
(lp1093
S'QI '
p1094
aS'PENETRATIVE RADIA (PING) '
p1095
ag5
ag5
ag5
ag1
asS'141'
p1096
(lp1097
S'QT '
p1098
aS'QT=QS-QB-QE (PING)       '
p1099
ag5
ag5
ag5
ag1
asS'1270'
p1100
(lp1101
S'BTP1'
p1102
aS'BT Percent Good Beam 1      '
p1103
ag5
ag5
ag5
aS'ADCP Btm. Trk. Beam 1 % Good Pings'
p1104
asS'1271'
p1105
(lp1106
S'BTP2'
p1107
aS'BT Percent Good Beam 2      '
p1108
ag5
ag5
ag5
aS'ADCP Btm. Trk. Beam 2 % Good Pings'
p1109
asS'1272'
p1110
(lp1111
S'BTP3'
p1112
aS'BT Percent Good Beam 3      '
p1113
ag5
ag5
ag5
aS'ADCP Btm. Trk. Beam 3 % Good Pings'
p1114
asS'1273'
p1115
(lp1116
S'BTP4'
p1117
aS'BT Percent Good Beam 4      '
p1118
ag5
ag5
ag5
aS'ADCP Btm. Trk. Beam 4 % Good Pings'
p1119
asS'4255'
p1120
(lp1121
S'NEON   '
p1122
aS'Neon                   '
p1123
aS'neon '
p1124
aS'nmol/kg  '
p1125
aS'f8.3'
p1126
ag1
asS'1275'
p1127
(lp1128
S'Un  '
p1129
aS'Track Normal Velocity       '
p1130
aS'un'
p1131
aS'cm/s'
p1132
ag5
aS'ADCP Vel. normal to track'
p1133
asS'148'
p1134
(lp1135
S'MHA'
p1136
aS'MERIDIONAL HEAT ADVECTION'
p1137
ag5
aS'W m-2'
p1138
ag5
ag1
asS'1277'
p1139
(lp1140
S'vel1'
p1141
aS'Beam 1 velocity (mm/s)    '
p1142
ag5
aS'mm s-1'
p1143
aS'f10.2'
p1144
aS'ADCP velocity along beam 1'
p1145
asS'1889'
p1146
(lp1147
S'AOD9 '
p1148
aS'Aerosol Optical Depth Ch-9 '
p1149
ag5
ag5
ag5
ag1
asS'1888'
p1150
(lp1151
S'AOD8 '
p1152
aS'Aerosol Optical Depth Ch-8 '
p1153
ag5
ag5
ag5
ag1
asS'1887'
p1154
(lp1155
S'AOD7 '
p1156
aS'Aerosol Optical Depth Ch-7 '
p1157
ag5
ag5
ag5
ag1
asS'1886'
p1158
(lp1159
S'AOD6 '
p1160
aS'Aerosol Optical Depth Ch-6 '
p1161
ag5
ag5
ag5
ag1
asS'1885'
p1162
(lp1163
S'AOD5 '
p1164
aS'Aerosol Optical Depth Ch-5 '
p1165
ag5
ag5
ag5
ag1
asS'1884'
p1166
(lp1167
S'AOD4 '
p1168
aS'Aerosol Optical Depth Ch-4 '
p1169
ag5
ag5
ag5
ag1
asS'1883'
p1170
(lp1171
S'AOD3 '
p1172
aS'Aerosol Optical Depth Ch-3 '
p1173
ag5
ag5
ag5
ag1
asS'1882'
p1174
(lp1175
S'AOD2 '
p1176
aS'Aerosol Optical Depth Ch-2 '
p1177
ag5
ag5
ag5
ag1
asS'1881'
p1178
(lp1179
S'AOD1 '
p1180
aS'Aerosol Optical Depth Ch-1 '
p1181
ag5
ag5
ag5
ag1
asS'1880'
p1182
(lp1183
S'AODMZA'
p1184
aS'AOD measurement zenith angle'
p1185
ag5
aS'degrees'
p1186
ag5
ag1
asS'1285'
p1187
(lp1188
S'cor1'
p1189
aS'Beam 1 correlation        '
p1190
ag5
aS'counts'
p1191
aS'i10'
p1192
aS'ADCP correlation of beam 1'
p1193
asS'1284'
p1194
(lp1195
S'att4'
p1196
aS'Beam 4 attenuation        '
p1197
ag5
aS'counts'
p1198
aS'i10'
p1199
aS'ADCP attenuation of beam 4'
p1200
asS'1287'
p1201
(lp1202
S'cor3'
p1203
aS'Beam 3 correlation        '
p1204
ag5
aS'counts'
p1205
aS'i10'
p1206
aS'ADCP correlation of beam 3'
p1207
asS'1286'
p1208
(lp1209
S'cor2'
p1210
aS'Beam 2 correlation        '
p1211
ag5
aS'counts'
p1212
aS'i10'
p1213
aS'ADCP correlation of beam 2'
p1214
asS'1281'
p1215
(lp1216
S'att1'
p1217
aS'Beam 1 attenuation        '
p1218
ag5
aS'counts'
p1219
aS'i10'
p1220
aS'ADCP attenuation of beam 1'
p1221
asS'1280'
p1222
(lp1223
S'vel4'
p1224
aS'Beam 4 velocity (mm/s)    '
p1225
ag5
aS'mm s-1'
p1226
aS'f10.2'
p1227
aS'ADCP velocity along beam 4'
p1228
asS'1283'
p1229
(lp1230
S'att3'
p1231
aS'Beam 3 attenuation        '
p1232
ag5
aS'counts'
p1233
aS'i10'
p1234
aS'ADCP attenuation of beam 3'
p1235
asS'1282'
p1236
(lp1237
S'att2'
p1238
aS'Beam 2 attenuation        '
p1239
ag5
aS'counts'
p1240
aS'i10'
p1241
aS'ADCP attenuation of beam 2'
p1242
asS'942'
p1243
(lp1244
S'WB '
p1245
aS'Wet Bulb Temp            '
p1246
ag5
aS'degree C'
p1247
ag5
ag1
asS'1288'
p1248
(lp1249
S'cor4'
p1250
aS'Beam 4 correlation        '
p1251
ag5
aS'counts'
p1252
aS'i10'
p1253
aS'ADCP correlation of beam 4'
p1254
asS'941'
p1255
(lp1256
S'DB '
p1257
aS'Dry Bulb Temp            '
p1258
ag5
aS'degree C'
p1259
ag5
ag1
asS'3001'
p1260
(lp1261
S'Tec '
p1262
aS'ADCP Electronics Temp. '
p1263
aS'temp'
p1264
aS'deg. C'
p1265
aS'F10.2'
p1266
aS'ADCP Electronics Box Temp.'
p1267
asS'1301'
p1268
(lp1269
S'BPR  '
p1270
aS'BOTTOM PRESSURE            '
p1271
ag5
aS'PSIA'
p1272
ag5
aS'Pounds Per Square Inch Absolute'
p1273
asS'4261'
p1274
(lp1275
S'DELHE3 '
p1276
aS'Delta-He3              '
p1277
aS'delhe3 '
p1278
ag611
aS'f9.2'
p1279
ag1
asS'4262'
p1280
(lp1281
S'DELHE3_FLAG'
p1282
aS'Delta-He3 Flag     '
p1283
aS'flag'
p1284
ag5
ag5
ag1
asS'133'
p1285
(lp1286
S'Qs '
p1287
aS'SHORTWAVE RADIATION      '
p1288
ag5
aS'W m-2'
p1289
ag5
ag1
asS'132'
p1290
(lp1291
S'Qs '
p1292
aS'SHORTWAVE RADIATION      '
p1293
ag5
aS'cal day-1 cm-2'
p1294
ag5
ag1
asS'131'
p1295
(lp1296
S'SpH'
p1297
aS'SPECIFIC HEAT, J/KG-DEG-C'
p1298
ag5
aS'J kg-1 C-1'
p1299
ag5
ag1
asS'130'
p1300
(lp1301
S'HTC'
p1302
aS'HEAT CONTENT (JOU/M**2)  '
p1303
ag5
aS'J m-2'
p1304
ag5
ag1
asS'137'
p1305
(lp1306
S'QH '
p1307
aS'LATENT HEAT              '
p1308
ag5
aS'W m-2'
p1309
ag5
ag1
asS'136'
p1310
(lp1311
S'Ql '
p1312
aS'LONGWAVE RADIATION       '
p1313
ag5
aS'W m-2'
p1314
ag5
ag1
asS'135'
p1315
(lp1316
S'Ql '
p1317
aS'LONGWAVE RADIATION       '
p1318
ag5
aS'cal day-1 cm-2'
p1319
ag5
ag1
asS'134'
p1320
(lp1321
S'HQ '
p1322
aS'LOCAL HEATING            '
p1323
ag5
ag5
ag5
ag1
asS'4224'
p1324
(lp1325
S'OXYGEN_FLAG'
p1326
aS'Bottle Oxygen Flag '
p1327
aS'flag'
p1328
ag5
ag5
ag1
asS'1223'
p1329
(lp1330
S'AGC3'
p1331
aS'Echo Intensity (AGC) Beam 3'
p1332
aS'AGC'
p1333
aS'counts'
p1334
ag5
aS'ADCP Beam 3 AGC'
p1335
asS'4226'
p1336
(lp1337
S'SILCAT_FLAG'
p1338
aS'Silicate Flag      '
p1339
aS'flag'
p1340
ag5
ag5
ag1
asS'138'
p1341
(lp1342
S'QB '
p1343
aS'SENSIBLE HEAT            '
p1344
ag5
aS'W m-2'
p1345
ag5
ag1
asS'4220'
p1346
(lp1347
S'CTDOST'
p1348
aS'CTD OXYGEN, %SAT         '
p1349
aS'ox'
p1350
ag611
ag5
ag1
asS'4221'
p1351
(lp1352
S'CTDOXY'
p1353
aS'CTD Oxygen              '
p1354
aS'ox'
p1355
aS'umol/kg'
p1356
aS'f9.1'
p1357
ag1
asS'4222'
p1358
(lp1359
S'CTDOXY_FLAG'
p1360
aS'CTD Oxygen Flag    '
p1361
aS'flag'
p1362
ag5
ag5
ag1
asS'1222'
p1363
(lp1364
S'AGC2'
p1365
aS'Echo Intensity (AGC) Beam 2'
p1366
aS'AGC'
p1367
aS'counts'
p1368
ag5
aS'ADCP Beam 2 AGC'
p1369
asS'24'
p1370
(lp1371
S'AT '
p1372
aS'AIR TEMPERATURE MAX (C)  '
p1373
aS'atemp'
p1374
ag350
ag5
ag1
asS'25'
p1375
(lp1376
S'T  '
p1377
aS'SST (C)                  '
p1378
aS'temp'
p1379
ag350
ag5
ag1
asS'26'
p1380
(lp1381
S'T  '
p1382
aS'SST MIN (C)              '
p1383
aS'temp'
p1384
ag350
ag5
ag1
asS'27'
p1385
(lp1386
S'T  '
p1387
aS'SST MAX (C)              '
p1388
aS'temp'
p1389
ag350
ag5
ag1
asS'20'
p1390
(lp1391
S'T  '
p1392
aS'TEMPERATURE (C)          '
p1393
aS'temp'
p1394
ag350
aS'f10.2'
p1395
aS'IPTS-1968 standard'
p1396
asS'21'
p1397
(lp1398
S'AT '
p1399
aS'AIR TEMPERATURE (C)      '
p1400
aS'atemp'
p1401
ag350
ag5
ag1
asS'22'
p1402
(lp1403
S'T0 '
p1404
aS'THERM TEMPERATURE (C)    '
p1405
aS'temp'
p1406
ag350
ag5
aS'Reversing therm. 1E35 indicates no therm.'
p1407
asS'23'
p1408
(lp1409
S'AT '
p1410
aS'AIR TEMPERATURE MIN (C)  '
p1411
aS'atemp'
p1412
ag350
ag5
ag1
asS'1220'
p1413
(lp1414
S'RSD '
p1415
aS'Roll Std. Dev.           '
p1416
aS'roll'
p1417
aS'degrees'
p1418
ag5
aS'ADCP Roll Std. Dev.'
p1419
asS'28'
p1420
(lp1421
S'T  '
p1422
aS'TEMPERATURE (C)          '
p1423
aS'temp'
p1424
ag350
aS'f10.2 '
p1425
aS'ITS-1990 Standard'
p1426
asS'29'
p1427
(lp1428
S'IT '
p1429
aS'TEMP INTEGRAL            '
p1430
aS'temp'
p1431
ag350
ag5
aS'Depth integrated temperature'
p1432
asS'1371'
p1433
(lp1434
S'U48'
p1435
aS'U Amplitude (CM/S) 48hrs '
p1436
aS'u48'
p1437
aS'cm s-1'
p1438
ag5
aS'measured w/r true N'
p1439
asS'4268'
p1440
(lp1441
S'O18O16_FLAG'
p1442
aS'O18/O16 Ratio Flag '
p1443
aS'flag'
p1444
ag5
ag5
ag1
asS'405'
p1445
(lp1446
S'RWS'
p1447
aS'Wind Speed (rel. to ship)'
p1448
ag5
aS'm s-1'
p1449
ag5
aS'Relative Wind Speed'
p1450
asS'404'
p1451
(lp1452
S'WS '
p1453
aS'Wind Speed               '
p1454
ag5
aS'm s-1'
p1455
ag5
ag1
asS'403'
p1456
(lp1457
S'WS '
p1458
aS'Wind Speed               '
p1459
ag5
aS'knots'
p1460
aS'F6.2'
p1461
aS'Wind Speed'
p1462
asS'402'
p1463
(lp1464
S'WG '
p1465
aS'WIND GUST (M/S)          '
p1466
ag5
aS'm s-1'
p1467
ag5
aS'greatest speed in interval (drifters)'
p1468
asS'401'
p1469
(lp1470
S'WS '
p1471
aS'WIND SPEED (M/S)         '
p1472
ag5
aS'm s-1'
p1473
ag5
ag1
asS'400'
p1474
(lp1475
S'WS '
p1476
aS'WIND SPEED (CM/S)        '
p1477
ag5
aS'cm s-1'
p1478
ag5
ag1
asS'933'
p1479
(lp1480
S'Chl'
p1481
aS'Chlorophyll              '
p1482
ag5
aS'ug/L'
p1483
ag5
ag1
asS'932'
p1484
(lp1485
S'Cla'
p1486
aS'Chlorophyll-a(CTD)       '
p1487
ag5
aS'ugrams/l'
p1488
ag5
ag1
asS'931'
p1489
(lp1490
S'Chv'
p1491
aS'Chlorophyll-a Volts(CTD) '
p1492
ag5
aS'Volts'
p1493
ag5
ag1
asS'937'
p1494
(lp1495
S'CA3'
p1496
aS'Chlorophyll-a Conc       '
p1497
ag5
aS'ugrams/l'
p1498
ag5
aS'WetLabs A-3'
p1499
asS'936'
p1500
(lp1501
S'AA3'
p1502
aS'Chlorophyll-a Absorption '
p1503
ag5
aS'm-1'
p1504
ag5
aS' WetLabs A-3'
p1505
asS'935'
p1506
(lp1507
S'VA3'
p1508
aS'ChlAM Voltage            '
p1509
ag5
aS'volts'
p1510
ag5
aS'WetLabs A-3'
p1511
asS'1955'
p1512
(lp1513
S'nssSO4'
p1514
aS'Soluble Sub10micron Aerosol non-Seasalt Sulfate  '
p1515
ag5
aS'ug/m^3'
p1516
ag5
ag5
asS'1954'
p1517
(lp1518
S'nssSO4'
p1519
aS'Soluble Supermicron Aerosol non-Seasalt Sulfate  '
p1520
ag5
aS'ug/m^3'
p1521
ag5
ag5
asS'1957'
p1522
(lp1523
S'MSA   '
p1524
aS'Soluble Supermicron Aerosol Methane Sulfonic Acid'
p1525
ag5
aS'ug/m^3'
p1526
ag5
ag5
asS'1956'
p1527
(lp1528
S'MSA   '
p1529
aS'Soluble Submicron Aerosol Methane Sulfonic Acid  '
p1530
ag5
aS'ug/m^3'
p1531
ag5
ag5
asS'1951'
p1532
(lp1533
S'SO4   '
p1534
aS'Soluble Supermicron Aerosol Sulfate              '
p1535
ag5
aS'ug/m^3'
p1536
ag5
ag5
asS'1950'
p1537
(lp1538
S'SO4   '
p1539
aS'Soluble Submicron Aerosol Sulfate                '
p1540
ag5
aS'ug/m^3'
p1541
ag5
ag5
asS'1953'
p1542
(lp1543
S'nssSO4'
p1544
aS'Soluble Submicron Aerosol non-Seasalt Sulfate    '
p1545
ag5
aS'ug/m^3'
p1546
ag5
ag5
asS'1952'
p1547
(lp1548
S'SO4   '
p1549
aS'Soluble Sub10micron Aerosol Sulfate              '
p1550
ag5
aS'ug/m^3'
p1551
ag5
ag5
asS'1959'
p1552
(lp1553
S'OC    '
p1554
aS'Submicron Aerosol Organic Carbon                 '
p1555
ag5
aS'ug/m^3'
p1556
ag5
ag5
asS'1958'
p1557
(lp1558
S'MSA   '
p1559
aS'Soluble Sub10micron Aerosol Methane Sulfonic Acid'
p1560
ag5
aS'ug/m^3'
p1561
ag5
ag5
asS'378'
p1562
(lp1563
S'V2 '
p1564
aS'V Tidal Amplitude (CM/S) species2'
p1565
aS'v2'
p1566
aS'cm s-1'
p1567
ag5
aS'measured w/r true N'
p1568
asS'371'
p1569
(lp1570
S'Y  '
p1571
aS'Y POSITION IN NET        '
p1572
ag5
ag5
ag5
aS'tracked TOPS position'
p1573
asS'370'
p1574
(lp1575
S'X  '
p1576
aS'X POSITION IN NET        '
p1577
ag5
ag5
ag5
aS'tracked TOPS position'
p1578
asS'372'
p1579
(lp1580
S'Z  '
p1581
aS'Z POSITION IN NET        '
p1582
ag5
ag5
ag5
aS'tracked TOPS position'
p1583
asS'375'
p1584
(lp1585
S'U1 '
p1586
aS'U Tidal Amplitude (CM/S) species1'
p1587
aS'u1'
p1588
aS'cm s-1'
p1589
ag5
aS'measured w/r true N'
p1590
asS'820'
p1591
(lp1592
S'SDT'
p1593
aS'STAND. DEV. (TEMP)       '
p1594
ag5
ag5
ag5
ag1
asS'377'
p1595
(lp1596
S'U2 '
p1597
aS'U Tidal Amplitude (CM/S) species2'
p1598
aS'u2'
p1599
aS'cm s-1'
p1600
ag5
aS'measured w/r true N'
p1601
asS'376'
p1602
(lp1603
S'V1 '
p1604
aS'V Tidal Amplitude (CM/S) species1'
p1605
aS'v1'
p1606
aS'cm s-1'
p1607
ag5
aS'measured w/r true N'
p1608
asS'4243'
p1609
(lp1610
S'CFC-12 '
p1611
aS'Freon-12               '
p1612
aS'f12'
p1613
aS'pmol/kg'
p1614
aS'f9.3'
p1615
ag1
asS'1278'
p1616
(lp1617
S'vel2'
p1618
aS'Beam 2 velocity (mm/s)    '
p1619
ag5
aS'mm s-1'
p1620
aS'f10.2'
p1621
aS'ADCP velocity along beam 2'
p1622
asS'1279'
p1623
(lp1624
S'vel3'
p1625
aS'Beam 3 velocity (mm/s)    '
p1626
ag5
aS'mm s-1'
p1627
aS'f10.2'
p1628
aS'ADCP velocity along beam 3'
p1629
asS'700'
p1630
(lp1631
S'SD '
p1632
aS'STANDARD DEVIATION       '
p1633
ag5
ag5
ag5
ag1
asS'4312'
p1634
(lp1635
S'FiltXCO2w'
p1636
aS'Filtered Mole Fraction of CO2 in Water'
p1637
aS'XCO2'
p1638
aS'ppm'
p1639
aS'f9.1'
p1640
aS'Underway CO2 obs'
p1641
asS'393'
p1642
(lp1643
S'ML '
p1644
aS'MERIDIONAL TRNS LOWER LIM'
p1645
ag5
aS'm2 s-1'
p1646
ag5
aS'transport per unit width'
p1647
asS'392'
p1648
(lp1649
S'ZL '
p1650
aS'ZONAL TRANSPORT LOWER LIM'
p1651
ag5
aS'm2 s-1'
p1652
ag5
aS'transport per unit width'
p1653
asS'391'
p1654
(lp1655
S'MU '
p1656
aS'MERIDIONAL TRNS UPPER LIM'
p1657
ag5
aS'm2 s-1'
p1658
ag5
aS'transport per unit width'
p1659
asS'390'
p1660
(lp1661
S'ZU '
p1662
aS'ZONAL TRANSPORT UPPER LIM'
p1663
ag5
aS'm2 s-1'
p1664
ag5
aS'transport per unit width'
p1665
asS'397'
p1666
(lp1667
S'Dy '
p1668
aS'MERIDIANAL MOOR LINE DRAG'
p1669
ag5
ag5
ag5
ag1
asS'396'
p1670
(lp1671
S'Dx '
p1672
aS'ZONAL MOORING LINE DRAG  '
p1673
ag5
ag5
ag5
ag1
asS'395'
p1674
(lp1675
S'MCW'
p1676
aS'MERIDIONAL CURRENT WIDTH '
p1677
ag5
ag5
ag5
ag1
asS'394'
p1678
(lp1679
S'ZCW'
p1680
aS'ZONAL CURRENT WIDTH      '
p1681
ag5
ag5
ag5
ag1
asS'80'
p1682
(lp1683
S'SV '
p1684
aS'SOUND VELOCITY (M/S)     '
p1685
ag5
aS'm s-1'
p1686
ag5
ag1
asS'81'
p1687
(lp1688
S'FAC'
p1689
aS'SND SPD CORR. FACTOR     '
p1690
aS'factor'
p1691
ag5
aS'f10.3'
p1692
aS'corr. BASS currents for actual sound speed'
p1693
asS'86'
p1694
(lp1695
S'SVA'
p1696
aS'SP VOL ANOM, 1E-8 M**3/KG'
p1697
ag5
aS'm3 kg-1'
p1698
ag5
ag1
asS'84'
p1699
(lp1700
S'RHO'
p1701
aS'DENSITY (KG/M**3)        '
p1702
aS'den'
p1703
aS'kg m-3'
p1704
aS'f10.2'
p1705
ag1
asS'85'
p1706
(lp1707
S'SPV'
p1708
aS'SPECIFIC VOLUME          '
p1709
ag5
ag5
ag5
ag1
asS'1712'
p1710
(lp1711
S'PF12'
p1712
aS'PCFC-12                 '
p1713
aS'pf12'
p1714
ag5
aS'f5.2'
p1715
aS'CFC-12 equilibrium partial-pressure'
p1716
asS'1711'
p1717
(lp1718
S'PF11'
p1719
aS'PCFC-11                 '
p1720
aS'pf11'
p1721
ag5
aS'f5.2'
p1722
aS'CFC-11 equilibrium partial-pressure'
p1723
asS'4041'
p1724
(lp1725
S'rtemp'
p1726
aS'RAW TEMPERATURE (SEABIRD) '
p1727
aS'temp'
p1728
aS'counts'
p1729
aS'i10'
p1730
aS'Seabird cell raw temperature'
p1731
asS'4042'
p1732
(lp1733
S'rtemp'
p1734
aS'RAW TEMPERATURE (MIDAS THERM) '
p1735
aS'temp'
p1736
aS'counts'
p1737
aS'i10'
p1738
aS'MIDAS thermister raw temperature'
p1739
asS'4043'
p1740
(lp1741
S'rtemp'
p1742
aS'RAW TEMPERATURE (VACM) '
p1743
aS'temp'
p1744
aS'counts'
p1745
aS'i10'
p1746
aS'vacm raw temperature'
p1747
asS'4251'
p1748
(lp1749
S'TRITUM '
p1750
aS'Tritium                '
p1751
aS'tritium'
p1752
aS'TU '
p1753
aS'f9.3'
p1754
ag1
asS'7'
p1755
(lp1756
S'SL '
p1757
aS'SEA LEVEL ANOMALY (M)    '
p1758
aS'depth'
p1759
ag52
ag5
ag1
asS'1879'
p1760
(lp1761
S'AODAMS'
p1762
aS'AOD measurement airmass'
p1763
ag5
aS'atmosphere '
p1764
ag5
ag1
asS'4239'
p1765
(lp1766
S'NO2NO3'
p1767
aS'Nitrate plus Nitrite    '
p1768
aS'NO2NO3'
p1769
aS'umol/l'
p1770
aS'f9.2'
p1771
ag1
asS'4253'
p1772
(lp1773
S'HELIUM '
p1774
aS'Helium                 '
p1775
aS'helium '
p1776
aS'nmol/kg'
p1777
aS'f9.4'
p1778
ag1
asS'4062'
p1779
(lp1780
S'wd  '
p1781
aS'mean wave direction '
p1782
aS'wave_dir'
p1783
aS'degrees'
p1784
aS'f8.2'
p1785
aS'direction dominant waves are coming from, measured clockwise from true north'
p1786
asS'4252'
p1787
(lp1788
S'TRITUM_FLAG'
p1789
aS'Tritium Flag       '
p1790
aS'flag'
p1791
ag5
ag5
ag1
asS'4063'
p1792
(lp1793
S'dwp '
p1794
aS'dominant wave period     '
p1795
aS'wave_period'
p1796
aS's'
p1797
aS'f10.2'
p1798
ag1
asS'4060'
p1799
(lp1800
S'wp  '
p1801
aS'average wave period       '
p1802
aS'wave_period'
p1803
ag1797
aS'f10.2'
p1804
ag1
asS'4254'
p1805
(lp1806
S'HELIUM_FLAG'
p1807
aS'Helium Flag        '
p1808
aS'flag'
p1809
ag5
ag5
ag1
asS'4061'
p1810
(lp1811
S'wh  '
p1812
aS'significant wave height   '
p1813
aS'wave_height'
p1814
ag52
aS'f10.2'
p1815
ag1
asS'1276'
p1816
(lp1817
S'Vt  '
p1818
aS'Track Tangential Velocity   '
p1819
aS'vt'
p1820
aS'cm/s'
p1821
ag5
aS'ADCP Vel. tangential to track'
p1822
asS'4256'
p1823
(lp1824
S'NEON_FLAG'
p1825
aS'Neon Flag            '
p1826
aS'flag'
p1827
ag5
ag5
ag1
asS'3018'
p1828
(lp1829
S'avTD'
p1830
aS'avg true wind dir'
p1831
aS'WD'
p1832
aS'degree'
p1833
aS'f10.2'
p1834
aS'avg true wind dir'
p1835
asS'3019'
p1836
(lp1837
S'avTS'
p1838
aS'avg true wind speed'
p1839
aS'WS'
p1840
aS'm/sec'
p1841
aS'f10.2'
p1842
aS'avg true wind speed'
p1843
asS'3012'
p1844
(lp1845
S'lon1'
p1846
aS'gps1 lon 1 min'
p1847
aS'long'
p1848
aS'degrees'
p1849
aS'f10.3'
p1850
aS'gps1 lon 1 min'
p1851
asS'1380'
p1852
(lp1853
S'Res '
p1854
aS'MTR resistance          '
p1855
aS'res'
p1856
aS'ohm'
p1857
aS'f10.2'
p1858
aS'Instrument resistance'
p1859
asS'3010'
p1860
(lp1861
S'MFdep'
p1862
aS'Miller Freeman depth'
p1863
aS'depth'
p1864
aS'meters'
p1865
aS'f10.1'
p1866
aS'depth from Miller Freeman'
p1867
asS'3011'
p1868
(lp1869
S'lat1'
p1870
aS'gps1 lat 1 min'
p1871
aS'lat'
p1872
aS'degrees'
p1873
aS'f10.3'
p1874
aS'gps1 lat 1 min'
p1875
asS'3016'
p1876
(lp1877
S'scz'
p1878
aS'seacat depth'
p1879
aS'depth'
p1880
aS'meters'
p1881
aS'f10.2'
p1882
aS'seacat depth'
p1883
asS'3017'
p1884
(lp1885
S'Tx  '
p1886
aS'ADCP Transducer Temp.     '
p1887
aS'temp'
p1888
aS'deg. C'
p1889
aS'F10.2'
p1890
aS'ADCP Transducer Temp.'
p1891
asS'3014'
p1892
(lp1893
S'scc'
p1894
aS'seacat conductivity'
p1895
aS'cond'
p1896
aS'mmhos'
p1897
aS'f10.2'
p1898
aS'seacat conductivity'
p1899
asS'3015'
p1900
(lp1901
S'scs'
p1902
aS'seacat salinity'
p1903
aS'sal'
p1904
aS'ppt'
p1905
aS'f10.2'
p1906
aS'seacat salinity'
p1907
asS'511'
p1908
(lp1909
S'LON'
p1910
aS'PROJECTED LONGITUDE      '
p1911
aS'lon'
p1912
aS'degree_west'
p1913
aS'f10.4'
p1914
aS'W is positive'
p1915
asS'510'
p1916
(lp1917
S'LAT'
p1918
aS'PROJECTED LATITUDE       '
p1919
aS'lat'
p1920
aS'degree_north'
p1921
aS'f10.4'
p1922
aS'N is positive, S is negative'
p1923
asS'513'
p1924
(lp1925
S'XS '
p1926
aS'Section Distance         '
p1927
aS'dist'
p1928
aS'km'
p1929
aS'f8.2'
p1930
aS'Positive toward end of section'
p1931
asS'512'
p1932
(lp1933
S'LON'
p1934
aS'PROJECTED LONGITUDE      '
p1935
aS'lon'
p1936
aS'degree_east'
p1937
aS'f10.4'
p1938
aS'E is positive'
p1939
asS'514'
p1940
(lp1941
S'YS '
p1942
aS'Transverse Distance      '
p1943
aS'dist'
p1944
aS'km'
p1945
aS'f8.2'
p1946
aS'Positive counterclockwise from section'
p1947
asS'623'
p1948
(lp1949
S'TIM'
p1950
aS'GEOSAT DAYS              '
p1951
aS'time'
p1952
ag5
ag5
aS'Days after 85/01/01'
p1953
asS'622'
p1954
(lp1955
S'TIM'
p1956
aS'GREENWICH DAYS           '
p1957
aS'time'
p1958
ag5
ag5
aS'Days from the start of the century'
p1959
asS'621'
p1960
(lp1961
S'DAT'
p1962
aS'MMDD.HHMM                '
p1963
aS'time'
p1964
ag5
ag5
aS'Date,Time without year (mmdd.hhmm, real no)'
p1965
asS'620'
p1966
(lp1967
S'DAT'
p1968
aS'DATE (EPIC)              '
p1969
aS'time'
p1970
ag5
aS'f10.0'
p1971
aS'EPIC Time series date yymmdd as real number'
p1972
asS'627'
p1973
(lp1974
S'TIM'
p1975
aS'Julian Days              '
p1976
aS'time'
p1977
ag5
ag5
aS'Real number, decimal part gives time of day'
p1978
asS'626'
p1979
(lp1980
S'TIM'
p1981
aS'DAYS SINCE START         '
p1982
aS'time'
p1983
aS'd'
p1984
ag5
aS'real, delta seconds'
p1985
asS'625'
p1986
(lp1987
S'TIM'
p1988
aS'SECONDS SINCE START      '
p1989
aS'time'
p1990
ag1797
ag5
aS'integer, delta seconds'
p1991
asS'624'
p1992
(lp1993
S'TIM'
p1994
aS'EPIC SYSTEM TIME         '
p1995
aS'time'
p1996
ag5
ag5
aS'2 integers, jul day, millisec since midnight'
p1997
asS'450'
p1998
(lp1999
S'WW '
p2000
aS'WIND WORK                '
p2001
ag5
aS'm3 s-3'
p2002
ag5
aS'Wind work'
p2003
asS'4269'
p2004
(lp2005
S'TCARBN '
p2006
aS'Total Carbon           '
p2007
aS'tcarbn '
p2008
aS'umol/kg'
p2009
aS'f9.1'
p2010
ag1
asS'628'
p2011
(lp2012
S'DUR'
p2013
aS'Sample Duration          '
p2014
ag5
aS'min'
p2015
ag5
ag1
asS'1876'
p2016
(lp2017
S'ASSRH'
p2018
aS'Aerosol Scat Nephelometer RH      '
p2019
ag5
ag611
ag5
ag1
asS'1877'
p2020
(lp2021
S'ASSP '
p2022
aS'Aerosol Scat Nephelometer Pressure'
p2023
ag5
aS'mbar'
p2024
ag5
ag1
asS'1874'
p2025
(lp2026
S'SAAb'
p2027
aS'Submicron Aerosol Absorbance'
p2028
ag5
aS'Mm-1'
p2029
ag5
ag1
asS'1875'
p2030
(lp2031
S'ASST '
p2032
aS'Aerosol Scat Nephelometer Temp    '
p2033
ag5
aS'degC'
p2034
ag5
ag1
asS'1872'
p2035
(lp2036
S'SBSR'
p2037
aS'Submicron Aero BkScat Red  '
p2038
ag5
aS'Mm-1'
p2039
ag5
ag1
asS'1873'
p2040
(lp2041
S'AAb '
p2042
aS'Aerosol Absorbance          '
p2043
ag5
aS'Mm-1'
p2044
ag5
ag1
asS'1870'
p2045
(lp2046
S'SBSB'
p2047
aS'Submicron Aero BkScat Blue '
p2048
ag5
aS'Mm-1'
p2049
ag5
ag1
asS'1871'
p2050
(lp2051
S'SBSG'
p2052
aS'Submicron Aero BkScat Green'
p2053
ag5
aS'Mm-1'
p2054
ag5
ag1
asS'3032'
p2055
(lp2056
S'EKdep'
p2057
aS'EK500 depth'
p2058
aS'depth'
p2059
aS'meters'
p2060
aS'f10.1'
p2061
aS'depth from MF EK500'
p2062
asS'170'
p2063
(lp2064
S'SPC'
p2065
aS'SPICE                    '
p2066
aS'spc '
p2067
ag5
ag5
aS'From Phyllis Stabeno (CTD data)'
p2068
asS'976'
p2069
(lp2070
S'VSP'
p2071
aS'SeaPoint Voltage         '
p2072
ag5
aS'volts'
p2073
ag5
aS'SeaPoint fluorometer'
p2074
asS'975'
p2075
(lp2076
S'VWS'
p2077
aS'wetStar Voltage          '
p2078
ag5
aS'volts'
p2079
ag5
aS'Wetlabs wetstar fluorometer'
p2080
asS'974'
p2081
(lp2082
S'fSP'
p2083
aS'SeaPoint fluorometer chl '
p2084
ag5
aS'ug/L'
p2085
ag5
aS'Sea Point fluorometer chlorophyll'
p2086
asS'973'
p2087
(lp2088
S'fWS'
p2089
aS'wetStar fluorometer chl  '
p2090
ag5
aS'ug/L'
p2091
ag5
aS'Wetlabs wetstar fluorometer chlorophyll'
p2092
asS'972'
p2093
(lp2094
S'rCv'
p2095
aS'raw chl-a Volts(CTD)     '
p2096
ag5
aS'Volts'
p2097
ag5
ag1
asS'971'
p2098
(lp2099
S'rFv'
p2100
aS'raw fluorometer Volts(CTD)   '
p2101
ag5
aS'Volts'
p2102
ag5
ag1
asS'182'
p2103
(lp2104
S'NO3'
p2105
aS'NITRATE (micromoles/l)   '
p2106
aS'NO3'
p2107
aS'uM/l'
p2108
ag5
aS'From Jim Murray'
p2109
asS'183'
p2110
(lp2111
S'NO3w'
p2112
aS'Nitrate in Water        '
p2113
aS'NO3'
p2114
aS'umol/L'
p2115
ag5
ag1
asS'1500'
p2116
(lp2117
S'LAT'
p2118
aS'START LATITUDE           '
p2119
aS'start_lat'
p2120
aS'degree_north'
p2121
aS'f10.4'
p2122
aS'N positive S negative'
p2123
asS'181'
p2124
(lp2125
S'SI '
p2126
aS'SiO4                     '
p2127
aS'SiO4'
p2128
aS'mg at/l'
p2129
ag5
aS'J.Murray '
p2130
asS'186'
p2131
(lp2132
S'PO4'
p2133
aS'PHOSPHATE (micromoles/l) '
p2134
aS'PO4'
p2135
aS'uM/l'
p2136
ag5
aS'From Jim Murray'
p2137
asS'187'
p2138
(lp2139
S'UR '
p2140
aS'UREA (micromoles/l)      '
p2141
aS'UR'
p2142
aS'uM/l'
p2143
ag5
aS'From Jim Murray'
p2144
asS'650'
p2145
(lp2146
S'H  '
p2147
aS'LAYER THICKNESS          '
p2148
aS'H'
p2149
ag52
ag5
aS"Mick Spillane's model"
p2150
asS'651'
p2151
(lp2152
S'n  '
p2153
aS'LAYER NUMBER             '
p2154
aS'n'
p2155
ag5
ag5
aS"Mick Spillane's model"
p2156
asS'188'
p2157
(lp2158
S'SI '
p2159
aS'SILICATE (micromoles/l)  '
p2160
aS'SiO4'
p2161
aS'uM/l'
p2162
ag5
aS'From Jim Murray'
p2163
asS'189'
p2164
(lp2165
S'NH4'
p2166
aS'AMMONIUM (micromoles/L)  '
p2167
aS'NH4'
p2168
aS'umol/L'
p2169
ag5
ag1
asS'3081'
p2170
(lp2171
S'SOG'
p2172
aS'Speed Over Ground (Trimble P-code GPS)'
p2173
aS'SOG'
p2174
aS'knots'
p2175
aS'F5.2'
p2176
aS'Ship Speed Over Ground'
p2177
asS'3080'
p2178
(lp2179
S'SOG'
p2180
aS'Speed Over Ground                     '
p2181
aS'SOG'
p2182
aS'knots'
p2183
aS'F5.2'
p2184
aS'Ship Speed Over Ground'
p2185
asS'3082'
p2186
(lp2187
S'SOG'
p2188
aS'Speed Over Ground (North Star GPS)    '
p2189
aS'SOG'
p2190
aS'knots'
p2191
aS'F5.2'
p2192
aS'Ship Speed Over Ground'
p2193
asS'184'
p2194
(lp2195
S'NO2'
p2196
aS'NITRITE (micromoles/l)   '
p2197
aS'NO2'
p2198
aS'uM/l'
p2199
ag5
aS'From Jim Murray'
p2200
asS'185'
p2201
(lp2202
S'NN '
p2203
aS'Nitrate + Nitrite        '
p2204
aS'NO2+NO3'
p2205
aS'umoles/l'
p2206
ag5
aS'Total nutrients'
p2207
asS'11'
p2208
(lp2209
S'DYN'
p2210
aS'DYM HT (SUBSAMPLED DATA) '
p2211
aS'dynhgt'
p2212
ag5
ag5
ag1
asS'10'
p2213
(lp2214
S'DYN'
p2215
aS'DYNAMIC METERS           '
p2216
aS'dynhgt'
p2217
aS'dyn-m'
p2218
aS'f10.4'
p2219
ag1
asS'13'
p2220
(lp2221
S'DYN'
p2222
aS'DYNAMIC HEIGHT (DYN CM)  '
p2223
aS'dynhgt'
p2224
aS'dyn-cm'
p2225
ag5
ag1
asS'12'
p2226
(lp2227
S'dDN'
p2228
aS'DYNn-DYNs                '
p2229
aS'dynhgt'
p2230
ag5
aS'f10.5'
p2231
aS'Diff of North and South Dyn Ht.'
p2232
asS'15'
p2233
(lp2234
S'd1 '
p2235
aS'DYN1 (DYN M)             '
p2236
aS'dynhgt'
p2237
aS'dyn-m'
p2238
ag5
aS'Dyn1 (ctd1) for geost vel calc'
p2239
asS'14'
p2240
(lp2241
S' dD'
p2242
aS'dDYN1-dDYN2 (DYN M)      '
p2243
aS'dynhgt'
p2244
aS'dyn-m'
p2245
ag5
aS'Delta-Dyn (ctd1-ctd2) for geost vel calc'
p2246
asS'17'
p2247
(lp2248
S'ZPG'
p2249
aS'ZONAL PRESSURE GRAD      '
p2250
ag5
ag5
ag5
aS'Calculated for specific areas'
p2251
asS'16'
p2252
(lp2253
S'd2 '
p2254
aS'DYN2 (DYN M)             '
p2255
aS'dynhgt'
p2256
aS'dyn-m'
p2257
ag5
aS'Dyn2 (ctd2) for geost vel calc'
p2258
asS'18'
p2259
(lp2260
S'hght'
p2261
aS'height (m)              '
p2262
aS'height'
p2263
ag52
aS'f10.2'
p2264
ag1
asS'4281'
p2265
(lp2266
S'PCO2 '
p2267
aS'Partial Pressure of CO2  '
p2268
aS'pco2 '
p2269
aS'uatm '
p2270
aS'f9.1'
p2271
ag1
asS'1977'
p2272
(lp2273
S'Ca    '
p2274
aS'Submicron Aerosol Calcium                        '
p2275
ag5
aS'ug/m^3'
p2276
ag5
ag5
asS'1923'
p2277
(lp2278
S'NH4   '
p2279
aS'Soluble Submicron Aerosol Ammonium               '
p2280
ag5
aS'ug/m^3'
p2281
ag5
ag5
asS'4012'
p2282
(lp2283
S'rtrn'
p2284
aS'RAW TRANSMISSOMETER VOLTS'
p2285
aS'trans'
p2286
aS'counts'
p2287
aS'i10'
p2288
aS'MIDAS raw transmissometer voltage'
p2289
asS'4011'
p2290
(lp2291
S'ptrn'
p2292
aS'PERCENT TRANSMISSION     '
p2293
aS'trans'
p2294
ag5
aS'f10.1'
p2295
aS'normalized by 95% of air transmission'
p2296
asS'1502'
p2297
(lp2298
S'LON'
p2299
aS'START LONGITUDE          '
p2300
aS'start_lon'
p2301
aS'degree_east'
p2302
aS'f10.4'
p2303
aS'E positive 165W=195'
p2304
asS'4010'
p2305
(lp2306
S'tran'
p2307
aS'TRANSMISSION (VOLTS)     '
p2308
aS'trans'
p2309
aS'volts'
p2310
aS'f10.3'
p2311
aS'basic measurement, transmissometer'
p2312
asS'4217'
p2313
(lp2314
S'SALNTY_FLAG'
p2315
aS'Bottle Salinity Flag'
p2316
aS'flag'
p2317
ag5
ag5
ag1
asS'4017'
p2318
(lp2319
S'tiltx'
p2320
aS'TILT IN POD X-Z PLANE    '
p2321
aS'tilt'
p2322
aS'degrees'
p2323
aS'f10.3'
p2324
aS'orientation of BASS pods'
p2325
asS'4016'
p2326
(lp2327
S'rtlty'
p2328
aS'RAW TILTY VOLTS          '
p2329
aS'tilt'
p2330
aS'counts'
p2331
aS'i10'
p2332
aS'MIDAS raw tilty voltage'
p2333
asS'4015'
p2334
(lp2335
S'rtltx'
p2336
aS'RAW TILTX VOLTS          '
p2337
aS'tilt'
p2338
aS'counts'
p2339
aS'i10'
p2340
aS'MIDAS raw tiltx voltage'
p2341
asS'4008'
p2342
(lp2343
S'cnt'
p2344
aS'clock counter            '
p2345
aS'count'
p2346
aS'counts'
p2347
aS'i10'
p2348
aS'clock counter'
p2349
asS'4009'
p2350
(lp2351
S'stead'
p2352
aS'STEADINESS             '
p2353
aS'steadiness'
p2354
ag5
aS'f10.4'
p2355
aS'VACM rotor spd normalized by vector spd to measure wave effect'
p2356
asS'1968'
p2357
(lp2358
S'Al    '
p2359
aS'Submicron Aerosol Aluminum                       '
p2360
ag5
aS'ug/m^3'
p2361
ag5
ag5
asS'1969'
p2362
(lp2363
S'Al    '
p2364
aS'Supermicron Aerosol Aluminum                     '
p2365
ag5
aS'ug/m^3'
p2366
ag5
ag5
asS'4216'
p2367
(lp2368
S'SALNTY '
p2369
aS'Bottle Salinity, PSS-78'
p2370
aS'sal'
p2371
aS'PSU'
p2372
aS'f9.4'
p2373
ag1
asS'1964'
p2374
(lp2375
S'BC    '
p2376
aS'Sub10micron Aerosol Black Carbon                 '
p2377
ag5
aS'ug/m^3'
p2378
ag5
ag5
asS'1965'
p2379
(lp2380
S'mass  '
p2381
aS'Submicron Aerosol mass                           '
p2382
ag5
aS'ug/m^3'
p2383
ag5
ag5
asS'1966'
p2384
(lp2385
S'mass  '
p2386
aS'Supermicron Aerosol mass                         '
p2387
ag5
aS'ug/m^3'
p2388
ag5
ag5
asS'1967'
p2389
(lp2390
S'mass  '
p2391
aS'Sub10micron Aerosol mass                         '
p2392
ag5
aS'ug/m^3'
p2393
ag5
ag5
asS'1960'
p2394
(lp2395
S'OC    '
p2396
aS'Supermicron Aerosol Organic Carbon               '
p2397
ag5
aS'ug/m^3'
p2398
ag5
ag5
asS'1961'
p2399
(lp2400
S'OC    '
p2401
aS'Sub10micron Aerosol Organic Carbon               '
p2402
ag5
aS'ug/m^3'
p2403
ag5
ag5
asS'1962'
p2404
(lp2405
S'BC    '
p2406
aS'Submicron Aerosol Black Carbon                   '
p2407
ag5
aS'ug/m^3'
p2408
ag5
ag5
asS'1963'
p2409
(lp2410
S'BC    '
p2411
aS'Supermicron Aerosol Black Carbon                 '
p2412
ag5
aS'ug/m^3'
p2413
ag5
ag5
asS'322'
p2414
(lp2415
S'U  '
p2416
aS'ZONAL CURRENT (CM/S)     '
p2417
ag240
aS'cm s-1'
p2418
ag5
aS'relative w/r true N'
p2419
asS'323'
p2420
(lp2421
S'V  '
p2422
aS'MERIDIONAL CURRENT (CM/S)'
p2423
ag211
aS'cm s-1'
p2424
ag5
aS'relative w/r true N'
p2425
asS'320'
p2426
(lp2427
S'U  '
p2428
aS'ZONAL CURRENT (CM/S)     '
p2429
ag240
aS'cm s-1'
p2430
ag5
aS'measured w/r true N'
p2431
asS'321'
p2432
(lp2433
S'V  '
p2434
aS'MERIDIONAL CURRENT (CM/S)'
p2435
ag211
aS'cm s-1'
p2436
ag5
aS'measured w/r true N'
p2437
asS'326'
p2438
(lp2439
S'U  '
p2440
aS'ZONAL CURRENT (CM/S)     '
p2441
ag240
aS'cm s-1'
p2442
ag5
aS'tracked w/r true N'
p2443
asS'327'
p2444
(lp2445
S'V  '
p2446
aS'MERIDIONAL CURRENT (CM/S)'
p2447
ag211
aS'cm s-1'
p2448
ag5
aS'tracked w/r true N'
p2449
asS'324'
p2450
(lp2451
S'U  '
p2452
aS'ZONAL CURRENT (CM/S)     '
p2453
ag240
aS'cm s-1'
p2454
ag5
aS'instrument w/r true N'
p2455
asS'325'
p2456
(lp2457
S'V  '
p2458
aS'MERIDIONAL CURRENT (CM/S)'
p2459
ag211
aS'cm s-1'
p2460
ag5
aS'instrument w/r true N'
p2461
asS'1224'
p2462
(lp2463
S'AGC4'
p2464
aS'Echo Intensity (AGC) Beam 4'
p2465
aS'AGC'
p2466
aS'counts'
p2467
ag5
aS'ADCP Beam 4 AGC'
p2468
asS'328'
p2469
(lp2470
S'W  '
p2471
aS'VERTICAL VELOCITY (CM/S) '
p2472
aS'w'
p2473
aS'cm s-1'
p2474
ag5
aS'tracked TOPS'
p2475
asS'329'
p2476
(lp2477
S'W  '
p2478
aS'VERTICAL VELOCITY (CM/S) '
p2479
ag2473
aS'cm s-1'
p2480
aS'f8.2'
p2481
ag1
asS'4236'
p2482
(lp2483
S'NITRAT '
p2484
aS'Nitrate                '
p2485
aS'NO3    '
p2486
aS'umol/l   '
p2487
aS'f9.1'
p2488
ag1
asS'200'
p2489
(lp2490
S'DIS'
p2491
aS'VERTICAL DISPLACEMENT    '
p2492
ag5
ag5
ag5
aS'From mean CTD profile'
p2493
asS'205'
p2494
(lp2495
S'SL '
p2496
aS'Sea Level                '
p2497
ag5
aS'mm'
p2498
ag5
ag1
asS'207'
p2499
(lp2500
S'SL_d'
p2501
aS'SEA LEVEL (daily)       '
p2502
aS'SLd'
p2503
ag52
aS'f7.3'
p2504
aS'daily insitu sea level values'
p2505
asS'206'
p2506
(lp2507
S'SL_h'
p2508
aS'SEA LEVEL (hourly)      '
p2509
aS'SLh'
p2510
ag52
aS'f7.3'
p2511
aS'hourly insitu sea level values'
p2512
asS'208'
p2513
(lp2514
S'SL_m'
p2515
aS'SEA LEVEL (monthly)     '
p2516
aS'SLm'
p2517
ag52
aS'f7.3'
p2518
aS'monthly insitu sea level values'
p2519
asS'77'
p2520
(lp2521
S'GN '
p2522
aS'GAMMA N (KG/M**3)        '
p2523
aS'gamma_n'
p2524
aS'kg m-3'
p2525
aS'f10.2'
p2526
aS'Neutral Density'
p2527
asS'76'
p2528
(lp2529
S'S1 '
p2530
aS'SIGMA 1 (KG/M**3)        '
p2531
aS'potden1'
p2532
aS'kg m-3'
p2533
aS'f10.2'
p2534
aS'sigma-theta ref to 1000m'
p2535
asS'75'
p2536
(lp2537
S'S5 '
p2538
aS'SIGMA 5 (KG/M**3)        '
p2539
aS'potden5'
p2540
aS'kg m-3'
p2541
aS'f10.2'
p2542
aS'sigma-theta ref to 5000m'
p2543
asS'74'
p2544
(lp2545
S'S4 '
p2546
aS'SIGMA 4 (KG/M**3)        '
p2547
aS'potden4'
p2548
aS'kg m-3'
p2549
aS'f10.2'
p2550
aS'sigma-theta ref to 4000m'
p2551
asS'73'
p2552
(lp2553
S'S3 '
p2554
aS'SIGMA 3 (KG/M**3)        '
p2555
aS'potden3'
p2556
aS'kg m-3'
p2557
aS'f10.2'
p2558
aS'sigma-theta ref to 3000m'
p2559
asS'72'
p2560
(lp2561
S'S2 '
p2562
aS'SIGMA 2 (KG/M**3)        '
p2563
aS'potden2'
p2564
aS'kg m-3'
p2565
aS'f10.2'
p2566
aS'sigma-theta ref to 2000m'
p2567
asS'71'
p2568
(lp2569
S'STH'
p2570
aS'SIGMA-THETA (KG/M**3)    '
p2571
aS'potden'
p2572
aS'kg m-3 '
p2573
aS'f10.2'
p2574
ag1
asS'70'
p2575
(lp2576
S'ST '
p2577
aS'SIGMA-T (KG/M**3)        '
p2578
aS'den'
p2579
aS'kg m-3'
p2580
aS'f10.2'
p2581
ag1
asS'3056'
p2582
(lp2583
S'DP '
p2584
aS'Dew Point             '
p2585
ag5
aS'degree C'
p2586
aS'f10.2'
p2587
ag5
ag1
asS'1501'
p2588
(lp2589
S'LON'
p2590
aS'START LONGITUDE          '
p2591
aS'start_lon'
p2592
aS'degree_west'
p2593
aS'f10.4'
p2594
aS'W positive 165W=165'
p2595
asS'3055'
p2596
(lp2597
S'qDP'
p2598
aS'Qualimetrics Dew Point'
p2599
ag5
aS'degree C'
p2600
aS'f10.2'
p2601
ag5
ag1
asS'3052'
p2602
(lp2603
S'AT '
p2604
aS'Air Temperature       '
p2605
aS'atemp'
p2606
aS'degree C'
p2607
aS'f10.2'
p2608
ag5
ag1
asS'3053'
p2609
(lp2610
S'AT '
p2611
aS'Air Temperature       '
p2612
aS'atemp'
p2613
aS'degree C'
p2614
aS'f10.2'
p2615
ag5
ag1
asS'3050'
p2616
(lp2617
S'qAT'
p2618
aS'Qualimetrics Air Temp '
p2619
aS'atemp'
p2620
aS'degree C'
p2621
aS'f10.2'
p2622
aS'Qualimetrics Air Temp'
p2623
asS'3051'
p2624
(lp2625
S'AT '
p2626
aS'Air Temperature       '
p2627
aS'atemp'
p2628
aS'degree C'
p2629
aS'f10.2'
p2630
ag5
ag1
asS'1142'
p2631
(lp2632
S'MHF'
p2633
aS'MERID ADVECT HEAT FLUX   '
p2634
ag5
aS'W m-2'
p2635
ag5
aS'ping 12/10/90'
p2636
asS'1143'
p2637
(lp2638
S'VE '
p2639
aS'VERTICAL ENTRAINMENT     '
p2640
ag5
aS'W m-2'
p2641
ag5
aS'ping 12/10/90'
p2642
asS'1269'
p2643
(lp2644
S'BTSD'
p2645
aS'BT Range Std. Dev.          '
p2646
ag5
ag52
ag5
aS'ADCP Btm. Trk. Range St Dev'
p2647
asS'1141'
p2648
(lp2649
S'YDF'
p2650
aS'MERID DIFFUS HEAT FLUX   '
p2651
ag5
aS'W m-2'
p2652
ag5
aS'ping 12/10/90'
p2653
asS'4307'
p2654
(lp2655
S'dfCO2'
p2656
aS'Delta fCO2'
p2657
aS'dfCO2'
p2658
aS'uatm'
p2659
aS'f9.1'
p2660
aS'Underway CO2 obs'
p2661
asS'4306'
p2662
(lp2663
S'pCO2w'
p2664
aS'Partial Pressure of CO2 in Water'
p2665
aS'pCO2w'
p2666
aS'uatm'
p2667
aS'f9.1'
p2668
aS'Underway CO2 obs'
p2669
asS'1144'
p2670
(lp2671
S'Qt '
p2672
aS'HEAT CONTENT CHANGE      '
p2673
ag5
aS'W m-2'
p2674
ag5
aS'ping 12/11/90'
p2675
asS'1145'
p2676
(lp2677
S'Qt*'
p2678
aS'QT*=QNET+QU+QW+QZ        '
p2679
ag5
aS'W m-2'
p2680
ag5
aS'ping 12/11/90'
p2681
asS'1263'
p2682
(lp2683
S'BTw '
p2684
aS'BT Vertical Velocity        '
p2685
ag2473
aS'cm/s'
p2686
ag5
aS'ADCP Btm. Trk. Vertical Velocity'
p2687
asS'1262'
p2688
(lp2689
S'BTv '
p2690
aS'BT Northward Velocity       '
p2691
ag211
aS'cm/s'
p2692
ag5
aS'ADCP Btm. Trk. Northward Velocity'
p2693
asS'1261'
p2694
(lp2695
S'BTu '
p2696
aS'BT Eastward Velocity        '
p2697
ag240
aS'cm/s'
p2698
ag5
aS'ADCP Btm. Trk. Eastward Velocity'
p2699
asS'1260'
p2700
(lp2701
S'BTWe'
p2702
aS'BT Error Velocity           '
p2703
ag2473
aS'cm/s'
p2704
ag5
aS'ADCP Btm. Trk. Error Velocity'
p2705
asS'1267'
p2706
(lp2707
S'BTR4'
p2708
aS'BT Range Beam 4             '
p2709
ag5
ag52
ag5
aS'ADCP Btm. Trk. Range Beam4'
p2710
asS'1266'
p2711
(lp2712
S'BTR3'
p2713
aS'BT Range Beam 3             '
p2714
ag5
ag52
ag5
aS'ADCP Btm. Trk. Range Beam3'
p2715
asS'1265'
p2716
(lp2717
S'BTR2'
p2718
aS'BT Range Beam 2             '
p2719
ag5
ag52
ag5
aS'ADCP Btm. Trk. Range Beam2'
p2720
asS'1264'
p2721
(lp2722
S'BTR1'
p2723
aS'BT Range Beam 1             '
p2724
ag5
ag52
ag5
aS'ADCP Btm. Trk. Range Beam1'
p2725
asS'1221'
p2726
(lp2727
S'AGC1'
p2728
aS'Echo Intensity (AGC) Beam 1'
p2729
aS'AGC'
p2730
aS'counts'
p2731
ag5
aS'ADCP Beam 1 AGC'
p2732
asS'4247'
p2733
(lp2734
S'CCL4 '
p2735
aS'Carbon Tetrachloride     '
p2736
aS'ccl4 '
p2737
aS'pmol/kg'
p2738
aS'f9.3'
p2739
ag1
asS'8'
p2740
(lp2741
S'MLD'
p2742
aS'MIXED LAYER DEPTH (M)    '
p2743
aS'depth'
p2744
ag52
ag5
aS'Program MIXDEP'
p2745
asS'995'
p2746
(lp2747
S'DW'
p2748
aS'Zooplankton Dry Wt./Vol.  '
p2749
ag5
aS'mg/m**3'
p2750
aS'f5.1'
p2751
aS'Zooplankton Dry Weight Conc.'
p2752
asS'994'
p2753
(lp2754
S'DV'
p2755
aS'Zooplankton Disp. Vol.    '
p2756
ag5
aS'ml/m**3'
p2757
aS'f5.2'
p2758
aS'Zooplankton Displacement Volume Conc.'
p2759
asS'996'
p2760
(lp2761
S'DWA'
p2762
aS'Zooplankton Dry Wt./Area '
p2763
ag5
aS'mg/m**2'
p2764
aS'f5.1'
p2765
aS'Zooplankton Dry Weight Areal Conc.'
p2766
asS'991'
p2767
(lp2768
S'SmCNpl'
p2769
aS'Copepod Nauplii (< 150 micrometers) Conc.'
p2770
aS'CopNpl'
p2771
aS'number/l'
p2772
aS'  '
p2773
aS'oncentration of Copepod Nauplii (< 150 micrometers)'
p2774
asS'990'
p2775
(lp2776
S'BUG'
p2777
aS'Plankton Concentration   '
p2778
ag5
aS'number/l'
p2779
ag5
aS' individuals per liter'
p2780
asS'993'
p2781
(lp2782
S'TCNpl'
p2783
aS'Copepod Nauplii Concentration'
p2784
aS'CopNpl'
p2785
aS'number/l'
p2786
ag5
aS'Copepod Nauplii Concentration '
p2787
asS'992'
p2788
(lp2789
S'LgCNpl'
p2790
aS'Copepod Nauplii (>= 150 micrometers) Conc.'
p2791
aS'CopNpl'
p2792
aS'number/l'
p2793
ag5
aS' Concentration of Copepod Nauplii (>= 150 micrometers)'
p2794
asS'120'
p2795
(lp2796
S"T' "
p2797
aS'GRADIENT DT/DZ           '
p2798
ag5
ag5
ag5
aS'Program CTDGRD2'
p2799
asS'121'
p2800
(lp2801
S'DZT'
p2802
aS'GRADIENT DZ/DT           '
p2803
ag5
ag5
ag5
aS'Program CTDGRD3'
p2804
asS'122'
p2805
(lp2806
S"T'X"
p2807
aS'GRADIENT DT/DX           '
p2808
ag5
ag5
ag5
aS'X is longitude'
p2809
asS'123'
p2810
(lp2811
S"T'Y"
p2812
aS'GRADIENT DT/DY           '
p2813
ag5
ag5
ag5
aS'Y is latitude'
p2814
asS'124'
p2815
(lp2816
S'UTX'
p2817
aS'U * dT/dx                '
p2818
ag5
ag5
ag5
aS'X is longitude'
p2819
asS'125'
p2820
(lp2821
S'DZT'
p2822
aS'GRADIENT DZ/DT           '
p2823
ag5
ag5
ag5
aS'Program CTDGRD3'
p2824
asS'126'
p2825
(lp2826
S'ADT'
p2827
aS'AD TEMP GRAD,DEG-C/DB    '
p2828
ag5
ag5
ag5
ag1
asS'4238'
p2829
(lp2830
S'PHSPHT '
p2831
aS'Phosphate              '
p2832
aS'PO4    '
p2833
aS'umol/l   '
p2834
aS'f9.2'
p2835
ag1
asS'4237'
p2836
(lp2837
S'NITRIT '
p2838
aS'Nitrite                '
p2839
aS'NO2    '
p2840
aS'umol/l   '
p2841
aS'f9.2'
p2842
ag1
asS'2'
p2843
(lp2844
S'D  '
p2845
aS'DEPTH (CM)               '
p2846
aS'depth'
p2847
aS'cm'
p2848
ag5
ag1
asS'4235'
p2849
(lp2850
S'SILCAT '
p2851
aS'Silicate               '
p2852
aS'SiO4   '
p2853
aS'umol/l   '
p2854
aS'f9.1'
p2855
ag1
asS'4234'
p2856
(lp2857
S'PHSPHT_FLAG'
p2858
aS'Phosphate Flag     '
p2859
aS'flag'
p2860
ag5
ag5
ag1
asS'4233'
p2861
(lp2862
S'PHSPHT '
p2863
aS'Phosphate              '
p2864
aS'PO4'
p2865
aS'umol/kg'
p2866
aS'f9.2'
p2867
ag1
asS'4232'
p2868
(lp2869
S'NITRIT_FLAG'
p2870
aS'Nitrite Flag       '
p2871
aS'flag'
p2872
ag5
ag5
ag1
asS'4231'
p2873
(lp2874
S'NITRIT '
p2875
aS'Nitrite                '
p2876
aS'NO2'
p2877
aS'umol/kg'
p2878
aS'f9.2'
p2879
ag1
asS'4230'
p2880
(lp2881
S'NO2+NO3_FLAG'
p2882
aS'NO2+NO3 Flag      '
p2883
aS'flag'
p2884
ag5
ag5
ag1
asS'414'
p2885
(lp2886
S'RWD'
p2887
aS'Wind Dir. (rel. to bow)  '
p2888
ag5
aS'degrees'
p2889
ag5
aS'Relative Wind Direction'
p2890
asS'410'
p2891
(lp2892
S'WD '
p2893
aS'WIND DIRECTION           '
p2894
ag5
aS'degrees'
p2895
ag5
aS'     0-360 degrees'
p2896
asS'411'
p2897
(lp2898
S'WD '
p2899
aS'WIND DIRECTION           '
p2900
ag5
aS'degrees'
p2901
ag5
aS'     -180 to 180 degrees'
p2902
asS'412'
p2903
(lp2904
S'WD '
p2905
aS'Wind Direction (from)    '
p2906
ag5
aS'degrees_T'
p2907
aS'F6.2'
p2908
aS'Wind Direction (from)'
p2909
asS'413'
p2910
(lp2911
S'WD '
p2912
aS'Wind Direction (toward)  '
p2913
ag5
aS'degrees_T'
p2914
aS'F6.2'
p2915
aS'Wind Direction (toward)'
p2916
asS'920'
p2917
(lp2918
S'CC '
p2919
aS'CLOUD COVER (OKTAS)      '
p2920
ag5
ag5
ag5
aS'OKTAS'
p2921
asS'921'
p2922
(lp2923
S'CT '
p2924
aS'Cloud Type Code          '
p2925
ag5
ag5
ag5
ag1
asS'922'
p2926
(lp2927
S'VIS'
p2928
aS'Visibility Code          '
p2929
ag5
ag5
ag5
ag1
asS'923'
p2930
(lp2931
S'WC '
p2932
aS'Weather Code             '
p2933
ag5
ag5
ag5
ag1
asS'924'
p2934
(lp2935
S'SC '
p2936
aS'Seastate Code            '
p2937
ag5
ag5
ag5
ag1
asS'925'
p2938
(lp2939
S'D  '
p2940
aS'Water Depth              '
p2941
aS'depth'
p2942
ag52
aS'f10.1'
p2943
ag1
asS'4229'
p2944
(lp2945
S'NO2+NO3'
p2946
aS'Nitrate plus Nitrite'
p2947
aS'NO2+NO3'
p2948
aS'umol/kg'
p2949
aS'f9.2'
p2950
ag1
asS'4215'
p2951
(lp2952
S'CTDSAL_FLAG'
p2953
aS'CTD Salinity Flag  '
p2954
aS'flag'
p2955
ag5
ag5
ag1
asS'319'
p2956
(lp2957
S'BV '
p2958
aS'DRIFTER BUOY V (M/S)     '
p2959
ag211
aS'm s-1'
p2960
ag5
aS'calculated from lat,lon'
p2961
asS'318'
p2962
(lp2963
S'BU '
p2964
aS'DRIFTER BUOY U (M/S)     '
p2965
ag240
aS'm s-1'
p2966
ag5
aS'calculated from lat,lon'
p2967
asS'4214'
p2968
(lp2969
S'CTDSAL '
p2970
aS'CTD Salinity, PSS-78   '
p2971
aS'sal'
p2972
aS'PSU'
p2973
aS'f9.4'
p2974
ag1
asS'311'
p2975
(lp2976
S'BD '
p2977
aS'DRIFTER BUOY DIRECTION   '
p2978
ag5
aS'degrees'
p2979
ag5
aS'oceanographic (going to)'
p2980
asS'310'
p2981
(lp2982
S'CD '
p2983
aS'CURRENT DIRECTION (T)     '
p2984
aS'vdir'
p2985
aS'degrees'
p2986
aS'f8.2'
p2987
aS'oceanographic (going to), using true north'
p2988
asS'317'
p2989
(lp2990
S'BV '
p2991
aS'Drifter Buoy v (cm/s)    '
p2992
ag211
aS'cm s-1'
p2993
ag5
aS'calculated from lat,lon'
p2994
asS'316'
p2995
(lp2996
S'BU '
p2997
aS'Drifter Buoy u (cm/s)    '
p2998
ag240
aS'cm s-1'
p2999
ag5
aS'calculated from lat,lon'
p3000
asS'1920'
p3001
(lp3002
S'Na    '
p3003
aS'Soluble Submicron Aerosol Sodium                 '
p3004
ag5
aS'ug/m^3'
p3005
ag5
ag5
asS'1921'
p3006
(lp3007
S'Na    '
p3008
aS'Soluble Supermicron Aerosol Sodium               '
p3009
ag5
aS'ug/m^3'
p3010
ag5
ag5
asS'1922'
p3011
(lp3012
S'Na    '
p3013
aS'Soluble Sub10micron Aerosol Sodium               '
p3014
ag5
aS'ug/m^3'
p3015
ag5
ag5
asS'1237'
p3016
(lp3017
S'SvSD'
p3018
aS'Backscattering Strength Std. Dev'
p3019
aS'Sv'
p3020
aS'dB'
p3021
ag5
aS'ADCP Bksctr. Std. Dev.'
p3022
asS'1924'
p3023
(lp3024
S'NH4   '
p3025
aS'Soluble Supermicron Aerosol Ammonium             '
p3026
ag5
aS'ug/m^3'
p3027
ag5
ag5
asS'1925'
p3028
(lp3029
S'NH4   '
p3030
aS'Soluble Sub10micron Aerosol Ammonium             '
p3031
ag5
aS'ug/m^3'
p3032
ag5
ag5
asS'1926'
p3033
(lp3034
S'K     '
p3035
aS'Soluble Submicron Aerosol Potassium              '
p3036
ag5
aS'ug/m^3'
p3037
ag5
ag5
asS'1927'
p3038
(lp3039
S'K     '
p3040
aS'Soluble Supermicron Aerosol Potassium            '
p3041
ag5
aS'ug/m^3'
p3042
ag5
ag5
asS'1928'
p3043
(lp3044
S'K     '
p3045
aS'Soluble Sub10micron Aerosol Potassium            '
p3046
ag5
aS'ug/m^3'
p3047
ag5
ag5
asS'1929'
p3048
(lp3049
S'Mg    '
p3050
aS'Soluble Submicron Aerosol Magnesium              '
p3051
ag5
aS'ug/m^3'
p3052
ag5
ag5
asS'4210'
p3053
(lp3054
S'CTDTMP '
p3055
aS'Temperature            '
p3056
aS'temp'
p3057
aS'degC'
p3058
aS'f9.4'
p3059
ag1
asS'4282'
p3060
(lp3061
S'PCO2_FLAG'
p3062
aS'PCO2 Flag            '
p3063
aS'flag'
p3064
ag5
ag5
ag1
asS'4283'
p3065
(lp3066
S'PH '
p3067
aS'pH                         '
p3068
aS'pH '
p3069
ag5
aS'f9.2'
p3070
ag1
asS'4227'
p3071
(lp3072
S'NITRAT '
p3073
aS'Nitrate'
p3074
aS'NO3            '
p3075
aS'umol/kg'
p3076
aS'f9.2'
p3077
ag1
asS'4213'
p3078
(lp3079
S'CTDTMP_FLAG'
p3080
aS'Temperature Flag   '
p3081
aS'flag'
p3082
ag5
ag5
ag1
asS'4284'
p3083
(lp3084
S'PH_FLAG'
p3085
aS'pH Flag                '
p3086
aS'flag'
p3087
ag5
ag5
ag1
asS'4212'
p3088
(lp3089
S'CTDTMP '
p3090
aS'Temperature, IPTS-68   '
p3091
aS'temp'
p3092
aS'degC'
p3093
aS'f9.4'
p3094
ag1
asS'3'
p3095
(lp3096
S'D  '
p3097
aS'DEPTH (M)                '
p3098
aS'depth'
p3099
ag52
aS'f10.1'
p3100
ag1
asS'4223'
p3101
(lp3102
S'OXYGEN '
p3103
aS'Bottle Oxygen          '
p3104
aS'ox'
p3105
aS'umol/kg'
p3106
aS'f9.1'
p3107
ag1
asS'362'
p3108
(lp3109
S'AU '
p3110
aS'ACCELERATION AU          '
p3111
ag5
ag5
ag5
ag1
asS'363'
p3112
(lp3113
S'AV '
p3114
aS'ACCELERATION AV          '
p3115
ag5
ag5
ag5
ag1
asS'360'
p3116
(lp3117
S'AX '
p3118
aS'ACCELERATION AX          '
p3119
ag5
ag5
ag5
ag1
asS'361'
p3120
(lp3121
S'AY '
p3122
aS'ACCELERATION AY          '
p3123
ag5
ag5
ag5
ag1
asS'4267'
p3124
(lp3125
S'O18O16 '
p3126
aS'O18/O16 Ratio          '
p3127
aS'o18o16 '
p3128
aS'0/00'
p3129
aS'f9.2'
p3130
ag1
asS'380'
p3131
(lp3132
S'ZT '
p3133
aS'ZONAL TRANSPORT, M**2/SEC'
p3134
ag5
aS'm2 s-1'
p3135
ag5
aS'total transport per unit width'
p3136
asS'381'
p3137
(lp3138
S'MT '
p3139
aS'MERIDIONAL TRANSPRT,M^2/S'
p3140
aS'U'
p3141
aS'm2 s-1'
p3142
ag5
aS'total transport per unit width'
p3143
asS'382'
p3144
(lp3145
S'ZT+'
p3146
aS'ZONAL TRANSPORT (+)      '
p3147
ag845
aS'm2 s-1'
p3148
ag5
aS'positive zonal transport per unit width'
p3149
asS'383'
p3150
(lp3151
S'MT+'
p3152
aS'MERIDIONAL TRANSPORT (+) '
p3153
ag5
aS'm2 s-1'
p3154
ag5
aS'positive meridional transport per unit width'
p3155
asS'384'
p3156
(lp3157
S'ZT-'
p3158
aS'ZONAL TRANSPORT (-)      '
p3159
ag5
aS'm2 s-1'
p3160
ag5
aS'negative zonal transport per unit width'
p3161
asS'385'
p3162
(lp3163
S'MT-'
p3164
aS'MERIDIONAL TRANSPORT (-) '
p3165
ag5
aS'm2 s-1'
p3166
ag5
aS'negative meridional transport per unit width'
p3167
asS'386'
p3168
(lp3169
S'ZT '
p3170
aS'ZONAL TRANSPORT, M**3/SEC'
p3171
ag3141
aS'm3 s-1'
p3172
ag5
aS'volume transport'
p3173
asS'387'
p3174
(lp3175
S'MT '
p3176
aS'MERIDIONAL TRANSPRT,M^3/S'
p3177
ag845
aS'm3 s-1'
p3178
ag5
aS'volume transport'
p3179
asS'388'
p3180
(lp3181
S'TR '
p3182
aS'TRK NORMAL TRNSPRT, M^3/S'
p3183
ag5
aS'm3 s-1'
p3184
ag5
aS'volume transport normal to track'
p3185
asS'4057'
p3186
(lp3187
S'perv'
p3188
aS'ZERO CROSSING PERIOD, V  '
p3189
aS'period_v'
p3190
ag1797
aS'f10.2'
p3191
aS'zero crossing period of north component, burst BASS data'
p3192
asS'4056'
p3193
(lp3194
S'peru'
p3195
aS'ZERO CROSSING PERIOD, U  '
p3196
aS'period_u'
p3197
ag1797
aS'f10.2'
p3198
aS'zero crossing period of east component, burst BASS data'
p3199
asS'4055'
p3200
(lp3201
S'WVAR'
p3202
aS'UP VELOCITY VARIANCE     '
p3203
aS'wvar'
p3204
aS'cm2/s2'
p3205
aS'f10.2'
p3206
aS'variance of up component, burst BASS data'
p3207
asS'4054'
p3208
(lp3209
S'VWCOV'
p3210
aS'V-W VELOCITY COVARIANCE '
p3211
aS'vwcovar'
p3212
aS'cm2/s2'
p3213
aS'f10.2'
p3214
aS'covariance of north and up, burst BASS data'
p3215
asS'4053'
p3216
(lp3217
S'UWCOV'
p3218
aS'U-W VELOCITY COVARIANCE '
p3219
aS'uwcovar'
p3220
aS'cm2/s2'
p3221
aS'f10.2'
p3222
aS'covariance of east and up, burst BASS data'
p3223
asS'4052'
p3224
(lp3225
S'VVAR'
p3226
aS'NORTH VELOCITY VARIANCE  '
p3227
aS'vvar'
p3228
aS'cm2/s2'
p3229
aS'f10.2'
p3230
aS'variance of north component, burst BASS data'
p3231
asS'4051'
p3232
(lp3233
S'UVCOV'
p3234
aS'U-V VELOCITY COVARIANCE '
p3235
aS'uvcovar'
p3236
aS'cm2/s2'
p3237
aS'f10.2'
p3238
aS'covariance of east and north, burst BASS data'
p3239
asS'4050'
p3240
(lp3241
S'UVAR'
p3242
aS'EAST VELOCITY VARIANCE   '
p3243
aS'uvar'
p3244
aS'cm2/s2'
p3245
aS'f10.2'
p3246
aS'variance of east component, burst BASS data'
p3247
asS'1722'
p3248
(lp3249
S'PF12AGE'
p3250
aS'Pf12age              '
p3251
aS'pf12age'
p3252
aS'years'
p3253
aS'f8.3'
p3254
aS'cfc12 partial pressure age'
p3255
asS'1723'
p3256
(lp3257
S'PFRATAGE'
p3258
aS'Pfratage            '
p3259
aS'pfratage'
p3260
aS'years'
p3261
aS'f8.3'
p3262
aS'cfcratio partial pressure age'
p3263
asS'4228'
p3264
(lp3265
S'NITRAT_FLAG'
p3266
aS'Nitrate Flag       '
p3267
aS'flag'
p3268
ag5
ag5
ag1
asS'1721'
p3269
(lp3270
S'PF11AGE'
p3271
aS'Pf11age              '
p3272
aS'pf11age'
p3273
aS'years'
p3274
aS'f8.3'
p3275
aS'cfc11 partial pressure age'
p3276
asS'4246'
p3277
(lp3278
S'CFC113_FLAG'
p3279
aS'Freon-113 Flag     '
p3280
aS'flag'
p3281
ag5
ag5
ag1
asS'60'
p3282
(lp3283
S'O  '
p3284
aS'OXYGEN (ML/L)            '
p3285
aS'ox'
p3286
aS'ml/l'
p3287
aS'f10.2'
p3288
aS'Dissolved oxygen calculated from CTD values'
p3289
asS'61'
p3290
(lp3291
S'BO '
p3292
aS'BOTTLE OXYGEN (ML/L)     '
p3293
aS'ox'
p3294
aS'ml/l'
p3295
ag5
aS'DO determined by titration. 1E35 ->no sample'
p3296
asS'62'
p3297
(lp3298
S'OST'
p3299
aS'OXYGEN, %SAT             '
p3300
aS'ox'
p3301
ag611
ag5
ag1
asS'3006'
p3302
(lp3303
S'sWD'
p3304
aS'seas wind direction'
p3305
aS'WD'
p3306
aS'degree'
p3307
aS'f10.2'
p3308
aS'seas wind direction'
p3309
asS'64'
p3310
(lp3311
S'AOU'
p3312
aS'APPARENT O2 UTILIZATION  '
p3313
aS'ox'
p3314
aS'ml/l'
p3315
ag5
ag1
asS'65'
p3316
(lp3317
S'O  '
p3318
aS'OXYGEN (UMOL/KG)         '
p3319
aS'ox'
p3320
aS'umol/kg'
p3321
aS'f10.2'
p3322
aS'Dissolved oxygen calculated from CTD values'
p3323
asS'66'
p3324
(lp3325
S'BO '
p3326
aS'BOTTLE OXYGEN (UMOL/KG)  '
p3327
aS'ox'
p3328
aS'umol/kg'
p3329
ag5
aS'DO determined by titration. 1E35 ->no sample'
p3330
asS'3002'
p3331
(lp3332
S'Vs  '
p3333
aS'ADCP Voltage          '
p3334
ag5
ag211
aS'F10.2'
p3335
aS'ADCP Supply Voltage'
p3336
asS'252'
p3337
(lp3338
S'GHR'
p3339
aS'GLOBAL HORIZNTL RADIATION'
p3340
aS'ghr'
p3341
aS'W m-2'
p3342
aS'f8.2'
p3343
aS'global horizontal radiation'
p3344
asS'1209'
p3345
(lp3346
S'EISD'
p3347
aS'Echo Intensity (AGC) Std. Dev.'
p3348
aS'AGC'
p3349
aS'counts'
p3350
aS'F5.1'
p3351
aS'ADCP AGC (1202) Std Dev'
p3352
asS'250'
p3353
(lp3354
S'GHR'
p3355
aS'GLOBAL HORIZNTL RADIATION'
p3356
aS'ghr'
p3357
aS'kJ s-2 d-1'
p3358
aS'f8.2'
p3359
aS'global horizontal radiation'
p3360
asS'251'
p3361
(lp3362
S'PAR'
p3363
aS'PHOTOSYN ACTIVE RADIATION'
p3364
aS'par'
p3365
aS'M ph m-2 d-1'
p3366
aS'f5.2 '
p3367
aS'photosynthetically active radiation'
p3368
asS'3009'
p3369
(lp3370
S'mT'
p3371
aS'manual water temp'
p3372
aS'temp'
p3373
aS'degree C'
p3374
aS'f10.2'
p3375
aS'manual water temp'
p3376
asS'3008'
p3377
(lp3378
S'mAT'
p3379
aS'manual air temp'
p3380
aS'dbulb'
p3381
aS'degree C'
p3382
aS'f10.2'
p3383
aS'manual air temp'
p3384
asS'154'
p3385
(lp3386
S'NO2'
p3387
aS'NITRITE (MG AT/L)        '
p3388
aS'NO2'
p3389
aS'mg at/l'
p3390
ag5
ag1
asS'4248'
p3391
(lp3392
S'CCL4_FLAG'
p3393
aS'Carbon Tetrachloride Flag'
p3394
aS'flag'
p3395
ag5
ag5
ag1
asS'1205'
p3396
(lp3397
S'u   '
p3398
aS'Eastward Velocity        '
p3399
ag240
aS'cm/s'
p3400
ag5
aS'Eastward Velocity'
p3401
asS'938'
p3402
(lp3403
S'CPHL'
p3404
aS'Chlorophyll             '
p3405
ag5
aS'mg/m3'
p3406
ag5
aS'Chlorophyll from WOD2001'
p3407
asS'1204'
p3408
(lp3409
S'w   '
p3410
aS'Vertical Velocity        '
p3411
ag2473
aS'cm/s'
p3412
ag5
aS'Vertical Velocity'
p3413
asS'502'
p3414
(lp3415
S'LON'
p3416
aS'LONGITUDE                '
p3417
aS'lon'
p3418
aS'degree_east'
p3419
aS'f10.4'
p3420
aS'New EPIC-- E is pos, eg, 165E=165, 170W=190'
p3421
asS'4244'
p3422
(lp3423
S'CFC-12_FLAG'
p3424
aS'Freon-12 Flag      '
p3425
aS'flag'
p3426
ag5
ag5
ag1
asS'500'
p3427
(lp3428
S'LAT'
p3429
aS'LATITUDE                 '
p3430
aS'lat'
p3431
aS'degree_north'
p3432
aS'f10.4'
p3433
aS'EPIC-- N is positive, S is negative'
p3434
asS'501'
p3435
(lp3436
S'LON'
p3437
aS'LONGITUDE                '
p3438
aS'lon'
p3439
aS'degree_west'
p3440
aS'f10.4'
p3441
aS'Classic EPIC-- W is pos, eg, 165W=165, 170E=190'
p3442
asS'4272'
p3443
(lp3444
S'ALKALI_FLAG'
p3445
aS'Alkalinity Flag    '
p3446
aS'flag'
p3447
ag5
ag5
ag1
asS'1210'
p3448
(lp3449
S'BIT '
p3450
aS'ADCP BIT Status          '
p3451
ag5
ag5
ag5
aS'ADCP Built-in Test Status'
p3452
asS'1211'
p3453
(lp3454
S'Tx  '
p3455
aS'ADCP Transducer Temp.    '
p3456
aS'temp'
p3457
aS'deg. C'
p3458
aS'F10.2'
p3459
aS'ADCP Transducer Temp'
p3460
asS'1216'
p3461
(lp3462
S'Ptch'
p3463
aS'INST Pitch               '
p3464
aS'ptch'
p3465
aS'degrees'
p3466
aS'F10.2'
p3467
aS'ADCP pitch'
p3468
asS'1217'
p3469
(lp3470
S'Roll'
p3471
aS'INST Roll                '
p3472
aS'roll'
p3473
aS'degrees'
p3474
aS'F10.2'
p3475
aS'ADCP roll'
p3476
asS'1215'
p3477
(lp3478
S'Hdg '
p3479
aS'INST Heading             '
p3480
aS'hdg'
p3481
aS'degrees'
p3482
aS'F10.2'
p3483
aS'ADCP heading'
p3484
asS'465'
p3485
(lp3486
S"V'Z"
p3487
aS'GRADIENT DV/DZ           '
p3488
ag5
aS's-1'
p3489
ag5
aS'Z is depth '
p3490
asS'464'
p3491
(lp3492
S"U'Z"
p3493
aS'GRADIENT DU/DZ           '
p3494
ag5
aS's-1'
p3495
ag5
aS'Z is depth'
p3496
asS'1218'
p3497
(lp3498
S'HSD '
p3499
aS'Heading Std. Dev.        '
p3500
aS'hdg'
p3501
aS'degrees'
p3502
ag5
aS'ADCP Hdg. Std. Dev.'
p3503
asS'466'
p3504
(lp3505
S'Shr'
p3506
aS'Current Shear            '
p3507
ag5
aS's-1'
p3508
ag5
aS"SQRT(U'Z^2+V'Z^2)"
p3509
asS'461'
p3510
(lp3511
S"V'X"
p3512
aS'GRADIENT DV/DX           '
p3513
ag5
aS'1E-5 s-1'
p3514
ag5
aS'X is longitude'
p3515
asS'460'
p3516
(lp3517
S"U'X"
p3518
aS'GRADIENT DU/DX           '
p3519
ag5
aS'1E-5 s-1'
p3520
ag5
aS'X is longitude'
p3521
asS'463'
p3522
(lp3523
S"V'Y"
p3524
aS'GRADIENT DV/DY           '
p3525
ag5
aS'1E-5 s-1'
p3526
ag5
aS'Y is latitude'
p3527
asS'462'
p3528
(lp3529
S"U'Y"
p3530
aS'GRADIENT DU/DY           '
p3531
ag5
aS'1E-5 s-1'
p3532
ag5
aS'Y is latitude'
p3533
asS'1861'
p3534
(lp3535
S'ASB '
p3536
aS'Aerosol Scat Blue       '
p3537
ag5
aS'Mm-1'
p3538
ag5
ag1
asS'1863'
p3539
(lp3540
S'ASR '
p3541
aS'Aerosol Scat Red        '
p3542
ag5
aS'Mm-1'
p3543
ag5
ag1
asS'901'
p3544
(lp3545
S'Fvt'
p3546
aS'Fluorometer Volts(CTD)   '
p3547
ag5
aS'Volts'
p3548
ag5
ag5
asS'1865'
p3549
(lp3550
S'ABSG'
p3551
aS'Aerosol Back Scat Green '
p3552
ag5
aS'Mm-1'
p3553
ag5
ag1
asS'1864'
p3554
(lp3555
S'ABSB'
p3556
aS'Aerosol Back Scat Blue  '
p3557
ag5
aS'Mm-1'
p3558
ag5
ag1
asS'1867'
p3559
(lp3560
S'SASB'
p3561
aS'Submicron AeroScat Blue '
p3562
ag5
aS'Mm-1'
p3563
ag5
ag1
asS'1866'
p3564
(lp3565
S'ABSR'
p3566
aS'Aerosol Back Scat Red   '
p3567
ag5
aS'Mm-1'
p3568
ag5
ag1
asS'1869'
p3569
(lp3570
S'SASR'
p3571
aS'Submicron AeroScat Red  '
p3572
ag5
aS'Mm-1'
p3573
ag5
ag1
asS'1868'
p3574
(lp3575
S'SASG'
p3576
aS'Submicron AeroScat Green'
p3577
ag5
aS'Mm-1'
p3578
ag5
ag1
asS'4241'
p3579
(lp3580
S'CFC-11 '
p3581
aS'Freon-11               '
p3582
aS'f11'
p3583
aS'pmol/kg'
p3584
aS'f9.3'
p3585
ag1
asS'961'
p3586
(lp3587
S'Rn '
p3588
aS'Rainfall                 '
p3589
ag5
aS'10-2 in'
p3590
ag5
ag1
asS'962'
p3591
(lp3592
S'Rr '
p3593
aS'Rain Rate                '
p3594
ag5
aS'mm/hr'
p3595
ag5
ag1
asS'4242'
p3596
(lp3597
S'CFC-11_FLAG'
p3598
aS'Freon-11 Flag      '
p3599
aS'flag'
p3600
ag5
ag5
ag1
asS'1511'
p3601
(lp3602
S'LON'
p3603
aS'END LONGITUDE            '
p3604
aS'end_lon'
p3605
aS'degree_west'
p3606
aS'f10.4'
p3607
aS'W positive 165W=165'
p3608
asS'908'
p3609
(lp3610
S'PAR'
p3611
aS'Photosynthetic Active Radiation'
p3612
aS'par'
p3613
aS'uEin cm-2 s-1'
p3614
ag5
aS'S.Salo 7/1/98'
p3615
asS'1512'
p3616
(lp3617
S'LON'
p3618
aS'END LONGITUDE            '
p3619
aS'end_lon'
p3620
aS'degree_east'
p3621
aS'f10.4'
p3622
aS'E positive 165W=195'
p3623
asS'4080'
p3624
(lp3625
S'u   '
p3626
aS'East(m)                   '
p3627
ag240
aS'cm s-1'
p3628
aS'f8.2'
p3629
aS'U component (magnetic)'
p3630
asS'4081'
p3631
(lp3632
S'v   '
p3633
aS'North(m)                  '
p3634
ag211
aS'cm s-1'
p3635
aS'f8.2'
p3636
aS'V component (magnetic)'
p3637
asS'4082'
p3638
(lp3639
S'u   '
p3640
aS'East(t)                   '
p3641
ag240
aS'cm s-1 '
p3642
aS'f8.2'
p3643
aS'U component (true north)'
p3644
asS'4083'
p3645
(lp3646
S'v   '
p3647
aS'North(t)                  '
p3648
ag211
aS'cm s-1'
p3649
aS'f8.2'
p3650
aS'V component (true North)'
p3651
asS'4084'
p3652
(lp3653
S'u   '
p3654
aS'East(r)                   '
p3655
ag240
aS'cm s-1 '
p3656
aS'f8.2'
p3657
aS'U component (rotated)'
p3658
asS'4085'
p3659
(lp3660
S'v   '
p3661
aS'North(r)                  '
p3662
ag211
aS'cm s-1'
p3663
aS'f8.2'
p3664
aS'V component (rotated)'
p3665
asS'4086'
p3666
(lp3667
S'u   '
p3668
aS'instant East(m)           '
p3669
ag240
aS'cm s-1'
p3670
aS'f8.2'
p3671
aS'instantaneous east comp (magnetic) FSIacm'
p3672
asS'4087'
p3673
(lp3674
S'v   '
p3675
aS'instant North(m)          '
p3676
ag211
aS'cm s-1'
p3677
aS'f8.2'
p3678
aS'instantaneous north comp (magnetic) FSIacm'
p3679
asS'4088'
p3680
(lp3681
S'u   '
p3682
aS'instant East(t)           '
p3683
ag240
aS'cm s-1'
p3684
aS'f8.2'
p3685
aS'instantaneous east comp (true north) FSIacm'
p3686
asS'4089'
p3687
(lp3688
S'v   '
p3689
aS'instant North(t)          '
p3690
ag211
aS'cm s-1'
p3691
aS'f8.2'
p3692
aS'instantaneous north comp (true north) FSIacm'
p3693
asS'1814'
p3694
(lp3695
S'pCOa'
p3696
aS'pCOair                  '
p3697
aS'co'
p3698
aS'micro-atm'
p3699
ag5
ag1
asS'1815'
p3700
(lp3701
S'pCOw'
p3702
aS'pCOwater                '
p3703
aS'co'
p3704
aS'micro-atm'
p3705
ag5
ag1
asS'1816'
p3706
(lp3707
S'SO2 '
p3708
aS'Atmospheric Sulfur Dioxide'
p3709
aS'so2'
p3710
aS'ppb'
p3711
ag5
ag1
asS'1810'
p3712
(lp3713
S'Rn  '
p3714
aS'Radon                   '
p3715
ag5
aS'mBq m-3'
p3716
ag5
ag1
asS'1811'
p3717
(lp3718
S'pC4a'
p3719
aS'pCH4air                 '
p3720
aS'ch4'
p3721
aS'micro-atm'
p3722
ag5
ag1
asS'1812'
p3723
(lp3724
S'pC4w'
p3725
aS'pCH4water               '
p3726
aS'ch4'
p3727
aS'micro-atm'
p3728
ag5
ag1
asS'3090'
p3729
(lp3730
S'LAT'
p3731
aS'Latitude (Trimble P-code GPS)'
p3732
aS'lat'
p3733
aS'degree_north'
p3734
aS'F8.5'
p3735
aS'Latitude '
p3736
asS'3091'
p3737
(lp3738
S'LAT'
p3739
aS'Latitude (North Star GPS)    '
p3740
aS'lat'
p3741
aS'degree_north'
p3742
aS'F8.5'
p3743
aS'Latitude '
p3744
asS'9'
p3745
(lp3746
S'P  '
p3747
aS'SEA LEVEL PRESSURE (MB)  '
p3748
aS'depth'
p3749
aS'mbar'
p3750
ag5
aS'For Ferret'
p3751
asS'3096'
p3752
(lp3753
S'LON'
p3754
aS'Longitude (North Star GPS)    '
p3755
aS'lon'
p3756
aS'degree_east'
p3757
aS'F9.5'
p3758
aS'Longitude'
p3759
asS'3095'
p3760
(lp3761
S'LON'
p3762
aS'Longitude (Trimble P-code GPS)'
p3763
aS'lon'
p3764
aS'degree_east'
p3765
aS'F9.5'
p3766
aS'Longitude '
p3767
asS'4031'
p3768
(lp3769
S'rpres'
p3770
aS'RAW PRESSURE (MX2)'
p3771
aS'pres'
p3772
aS'counts'
p3773
aS'i10'
p3774
aS'mx-vacm with 2 mx-variables'
p3775
asS'4019'
p3776
(lp3777
S'tilta'
p3778
aS'TILT ANGLE               '
p3779
aS'tilt'
p3780
aS'degrees'
p3781
aS'f8.2'
p3782
aS'averaged instrument tilt FSIacm'
p3783
asS'4018'
p3784
(lp3785
S'tilty'
p3786
aS'TILT IN POD Y_Z PLANE    '
p3787
aS'tilt'
p3788
aS'degrees'
p3789
aS'f10.3'
p3790
aS'orientation of BASS pods'
p3791
asS'1979'
p3792
(lp3793
S'Ca    '
p3794
aS'Sub10micron Aerosol Calcium                      '
p3795
ag5
aS'ug/m^3'
p3796
ag5
ag5
asS'1978'
p3797
(lp3798
S'Ca    '
p3799
aS'Supermicron Aerosol Calcium                      '
p3800
ag5
aS'ug/m^3'
p3801
ag5
ag5
asS'1601'
p3802
(lp3803
S'IQ'
p3804
aS'WEPOCS QUALITY ID         '
p3805
aS'iq'
p3806
ag5
ag5
aS"Billy Kessler's WEPOCS CTD"
p3807
asS'1976'
p3808
(lp3809
S'Si    '
p3810
aS'Sub10micron Aerosol Silicon                      '
p3811
ag5
aS'ug/m^3'
p3812
ag5
ag5
asS'1975'
p3813
(lp3814
S'Si    '
p3815
aS'Supermicron Aerosol Silicon                      '
p3816
ag5
aS'ug/m^3'
p3817
ag5
ag5
asS'1974'
p3818
(lp3819
S'Si    '
p3820
aS'Submicron Aerosol Silicon                        '
p3821
ag5
aS'ug/m^3'
p3822
ag5
ag5
asS'1973'
p3823
(lp3824
S'Fe    '
p3825
aS'Sub10micron Aerosol Iron                         '
p3826
ag5
aS'ug/m^3'
p3827
ag5
ag5
asS'1972'
p3828
(lp3829
S'Fe    '
p3830
aS'Supermicron Aerosol Iron                         '
p3831
ag5
aS'ug/m^3'
p3832
ag5
ag5
asS'1971'
p3833
(lp3834
S'Fe    '
p3835
aS'Submicron Aerosol Iron                           '
p3836
ag5
aS'ug/m^3'
p3837
ag5
ag5
asS'1970'
p3838
(lp3839
S'Al    '
p3840
aS'Sub10micron Aerosol Aluminum                     '
p3841
ag5
aS'ug/m^3'
p3842
ag5
ag5
asS'4000'
p3843
(lp3844
S'upr'
p3845
aS'UPPER ROTOR SPEED     '
p3846
aS'rotor'
p3847
aS'counts'
p3848
aS'f10.1'
p3849
aS'basic measurement, vmcm'
p3850
asS'4032'
p3851
(lp3852
S'rpres'
p3853
aS'RAW PRESSURE (MX4)'
p3854
aS'pres'
p3855
aS'counts'
p3856
aS'i10'
p3857
aS'mx-vacm with 4 mx-variables'
p3858
asS'351'
p3859
(lp3860
S'HY '
p3861
aS'COMPASS HY               '
p3862
ag5
ag5
ag5
ag1
asS'350'
p3863
(lp3864
S'HX '
p3865
aS'COMPASS HX               '
p3866
ag5
ag5
ag5
ag1
asS'4002'
p3867
(lp3868
S'lowr'
p3869
aS'LOWER ROTOR SPEED    '
p3870
aS'rotor'
p3871
aS'counts'
p3872
aS'f10.1'
p3873
aS'basic measurement, vmcm'
p3874
asS'4003'
p3875
(lp3876
S'lowr'
p3877
aS'LOWER ROTOR SPEED    '
p3878
aS'rotor'
p3879
aS'cm/s'
p3880
aS'f10.3'
p3881
aS'interval lower rotor speed, Seadata tripod'
p3882
asS'210'
p3883
(lp3884
S'SL '
p3885
aS'GEOSAT SEA LEVEL (M)     '
p3886
ag5
ag52
ag5
aS'Mean value over grid block'
p3887
asS'1236'
p3888
(lp3889
S'Sv4 '
p3890
aS'Backscattering Strength Beam 4'
p3891
aS'Sv'
p3892
aS'dB'
p3893
ag5
aS'ADCP Bksctr., ref to noise cal'
p3894
asS'4004'
p3895
(lp3896
S'rdif'
p3897
aS'ROTOR SPEED DIFFERENCE  '
p3898
aS'rotor'
p3899
aS'cm/s'
p3900
aS'f10.3'
p3901
aS'difference, interval rotor speed, Seadata tripod'
p3902
asS'4005'
p3903
(lp3904
S'rot'
p3905
aS'ROTOR COUNTS             '
p3906
aS'rotor'
p3907
aS'counts'
p3908
aS'i10'
p3909
aS'vacm rotor counter'
p3910
asS'4006'
p3911
(lp3912
S'rspd'
p3913
aS'ROTOR SPEED             '
p3914
aS'speed'
p3915
aS'cm s-1'
p3916
aS'f8.2'
p3917
aS'scalar speed from rotor counts'
p3918
asS'3040'
p3919
(lp3920
S'SD'
p3921
aS'Ship Heading           '
p3922
aS'SD'
p3923
aS'degrees'
p3924
aS'f10.2'
p3925
aS'ship heading'
p3926
asS'4007'
p3927
(lp3928
S'vspd'
p3929
aS'VECTOR SPEED            '
p3930
aS'vspd'
p3931
aS'cm s-1'
p3932
aS'f8.2'
p3933
aS'vector speed from U and V'
p3934
asS'289'
p3935
(lp3936
S'NH4'
p3937
aS'AMMONIUM (micromoles/kg) '
p3938
aS'NH4'
p3939
aS'umol/kg'
p3940
ag5
ag1
asS'288'
p3941
(lp3942
S'SI '
p3943
aS'SILICATE (micromoles/kg) '
p3944
aS'SiO4'
p3945
aS'uM/kg'
p3946
ag5
aS'From Jim Murray'
p3947
asS'4'
p3948
(lp3949
S'P  '
p3950
aS'PRESSURE (PASCALS)       '
p3951
aS'depth'
p3952
aS'Pa'
p3953
ag5
ag1
asS'282'
p3954
(lp3955
S'NO3'
p3956
aS'NITRATE (micromoles/kg)  '
p3957
aS'NO3'
p3958
aS'uM/kg'
p3959
ag5
aS'From Jim Murray'
p3960
asS'284'
p3961
(lp3962
S'NO2'
p3963
aS'NITRITE (micromoles/kg)  '
p3964
aS'NO2'
p3965
aS'uM/kg'
p3966
ag5
aS'From Jim Murray'
p3967
asS'287'
p3968
(lp3969
S'UR '
p3970
aS'UREA (micromoles/kg)     '
p3971
aS'UR'
p3972
aS'uM/kg'
p3973
ag5
aS'From Jim Murray'
p3974
asS'286'
p3975
(lp3976
S'PO4'
p3977
aS'PHOSPHATE (micromoles/kg)'
p3978
aS'PO4'
p3979
aS'uM/kg'
p3980
ag5
aS'From Jim Murray'
p3981
asS'3005'
p3982
(lp3983
S'sAT'
p3984
aS'seas air temp'
p3985
aS'atemp'
p3986
aS'degree C'
p3987
aS'f10.2'
p3988
aS'seas air temp'
p3989
asS'3038'
p3990
(lp3991
S'su'
p3992
aS'gps ship u component'
p3993
aS'su'
p3994
aS'knots'
p3995
aS'f10.2'
p3996
aS'ship east vel'
p3997
asS'3039'
p3998
(lp3999
S'sv'
p4000
aS'gps ship v component'
p4001
aS'sv'
p4002
aS'knots'
p4003
aS'f10.2'
p4004
aS'ship north vel'
p4005
asS'3004'
p4006
(lp4007
S'sWB'
p4008
aS'seas wet bulb temp'
p4009
aS'wbT'
p4010
aS'degree C'
p4011
aS'f10.2'
p4012
aS'seas wet bulb temp'
p4013
asS'55'
p4014
(lp4015
S'ATTN'
p4016
aS'ATTENUATION             '
p4017
aS'attn'
p4018
aS'm-1'
p4019
aS'f7.5'
p4020
aS'added for r2d2 ctd data'
p4021
asS'54'
p4022
(lp4023
S'C2  '
p4024
aS'Secondary Conductivity  '
p4025
aS'con'
p4026
aS'mmho/cm'
p4027
ag5
ag1
asS'3036'
p4028
(lp4029
S'SD'
p4030
aS'gps ship direction'
p4031
aS'SD'
p4032
aS'degrees'
p4033
aS'f10.2'
p4034
aS'ship direction'
p4035
asS'56'
p4036
(lp4037
S'NEP'
p4038
aS'BACKSCATTER INTENSITY    '
p4039
aS'nephylometer'
p4040
ag211
aS'f10.6'
p4041
aS' added for Dave Pashinski'
p4042
asS'51'
p4043
(lp4044
S'C  '
p4045
aS'CONDUCTIVITY             '
p4046
aS'con'
p4047
aS'S/m'
p4048
aS'f10.3'
p4049
ag1
asS'50'
p4050
(lp4051
S'C  '
p4052
aS'CONDUCTIVITY             '
p4053
aS'con'
p4054
aS'mmho/cm'
p4055
ag5
ag1
asS'53'
p4056
(lp4057
S'rcon'
p4058
aS'RAW CONDUCTIVITY (VACM) '
p4059
aS'cond'
p4060
aS'counts'
p4061
aS'i10'
p4062
aS'vacm raw conductivity'
p4063
asS'52'
p4064
(lp4065
S'rcon'
p4066
aS'RAW CONDUCTIVITY (SEABIRD)'
p4067
aS'cond'
p4068
aS'counts'
p4069
aS'i10'
p4070
aS'Seabird cell raw conductivity'
p4071
asS'3034'
p4072
(lp4073
S'rWD'
p4074
aS'RMY true direction'
p4075
aS'WD'
p4076
aS'degree'
p4077
aS'f10.2'
p4078
aS'oc true direction'
p4079
asS'3035'
p4080
(lp4081
S'rWS'
p4082
aS'RMY wind speed'
p4083
aS'WS'
p4084
aS'knots'
p4085
aS'f10.2'
p4086
aS'oc wind speed'
p4087
asS'1411'
p4088
(lp4089
S'bear'
p4090
aS'bearing (m)      '
p4091
aS'dir'
p4092
aS'degreeM'
p4093
aS'f8.2'
p4094
aS'instantaneous dir., magnetic north (oceanographic)'
p4095
asS'1412'
p4096
(lp4097
S'bear'
p4098
aS'bearing (t)      '
p4099
aS'dir'
p4100
aS'degreeT'
p4101
aS'f8.2'
p4102
aS'instantaneous dir., true north (oceanographic)'
p4103
asS'1413'
p4104
(lp4105
S'bear'
p4106
aS'bearing (r)      '
p4107
aS'dir'
p4108
aS'degrees'
p4109
aS'f8.2'
p4110
aS'instantaneous dir., rotated (oceanographic)'
p4111
asS'1414'
p4112
(lp4113
S'vdir'
p4114
aS'vector direction (m)'
p4115
aS'vdir'
p4116
aS'degreeM'
p4117
aS'f8.2'
p4118
aS'averaged dir., magnetic north (oceanographic)'
p4119
asS'1415'
p4120
(lp4121
S'vdir'
p4122
aS'vector direction (t)'
p4123
aS'vdir'
p4124
aS'degreeT'
p4125
aS'f8.2'
p4126
aS'averaged dir., true north (oceanographic)'
p4127
asS'1416'
p4128
(lp4129
S'vdir'
p4130
aS'vector direction (r)'
p4131
aS'vdir'
p4132
aS'degrees'
p4133
aS'f8.2'
p4134
aS'averaged dir., rotated (oceanographic)'
p4135
asS'3037'
p4136
(lp4137
S'SS'
p4138
aS'gps ship speed'
p4139
aS'SS'
p4140
aS'knots'
p4141
aS'f10.2'
p4142
aS'ship speed'
p4143
asS'3003'
p4144
(lp4145
S'sBP'
p4146
aS'seas barometric pressure'
p4147
aS'BP'
p4148
aS'mbs'
p4149
aS'f10.2'
p4150
aS'seas barometric pressure'
p4151
asS'3030'
p4152
(lp4153
S'light'
p4154
aS'light intensity'
p4155
aS'light'
p4156
aS'volts'
p4157
aS'f10.2'
p4158
aS'light intensity'
p4159
asS'980'
p4160
(lp4161
S'Trb '
p4162
aS'Turbidity(FNU)          '
p4163
aS'turb'
p4164
aS'FNU'
p4165
aS'f10.2'
p4166
aS'formazin nephelometric units'
p4167
asS'981'
p4168
(lp4169
S'Sed'
p4170
aS'Sediment concentration   '
p4171
aS'sed'
p4172
aS'g/l'
p4173
aS'f10.2'
p4174
aS'sediment concentration'
p4175
asS'3031'
p4176
(lp4177
S'fluor'
p4178
aS'fluorometer'
p4179
aS'fluor'
p4180
aS'volts'
p4181
aS'f10.2'
p4182
aS'fluorometer'
p4183
asS'115'
p4184
(lp4185
S'BAT3'
p4186
aS'BATTERY VOLTAGE 3       '
p4187
aS'bat'
p4188
aS'volts'
p4189
aS'f10.3'
p4190
ag1
asS'114'
p4191
(lp4192
S'BAT2'
p4193
aS'BATTERY VOLTAGE 2       '
p4194
aS'bat'
p4195
aS'volts'
p4196
aS'f10.3'
p4197
ag1
asS'111'
p4198
(lp4199
S'OXT'
p4200
aS'OXYGEN TEMPERATURE       '
p4201
ag5
ag5
ag5
ag1
asS'110'
p4202
(lp4203
S'OXC'
p4204
aS'OXYGEN CURRENT           '
p4205
ag5
ag5
ag5
ag1
asS'113'
p4206
(lp4207
S'BAT1'
p4208
aS'BATTERY VOLTAGE 1       '
p4209
aS'bat'
p4210
aS'volts'
p4211
aS'f10.3'
p4212
ag1
asS'112'
p4213
(lp4214
S'DOC'
p4215
aS'dOXC/dt                  '
p4216
ag5
ag5
ag5
aS'Time rate of change of Oxygen current'
p4217
asS'4202'
p4218
(lp4219
S'BTLNBR_FLAG'
p4220
aS'Bottle Number Flag '
p4221
aS'flag'
p4222
ag5
ag5
ag1
asS'4203'
p4223
(lp4224
S'CTDPRS'
p4225
aS'Pressure                '
p4226
aS'depth'
p4227
aS'dbar'
p4228
aS'f9.1'
p4229
ag1
asS'9993'
p4230
(lp4231
S'z'
p4232
aS'z axis'
p4233
ag4232
ag5
ag5
aS'z axis'
p4234
asS'3033'
p4235
(lp4236
S'EQdep'
p4237
aS'EQ50 depth'
p4238
aS'depth'
p4239
aS'meters'
p4240
aS'f10.1'
p4241
aS'depth from MF EQ50'
p4242
asS'9994'
p4243
(lp4244
S't'
p4245
aS't axis'
p4246
ag4245
ag5
ag5
aS't axis '
p4247
asS'4204'
p4248
(lp4249
S'CTDPRS_FLAG'
p4250
aS'Pressure Flag      '
p4251
aS'flag'
p4252
ag5
ag5
ag1
asS'4311'
p4253
(lp4254
S'FiltXCO2a'
p4255
aS'Filtered Mole Fraction of CO2 in Air'
p4256
aS'XCO2'
p4257
aS'ppm'
p4258
aS'f9.1'
p4259
aS'Underway CO2 obs'
p4260
asS'1851'
p4261
(lp4262
S'CN  '
p4263
aS'Total Particles Dp>12nm '
p4264
ag5
aS'cm-3'
p4265
ag5
aS'condensation nuclei'
p4266
asS'1852'
p4267
(lp4268
S'UFCN'
p4269
aS'Total Particles Dp>3nm  '
p4270
ag5
aS'cm-3'
p4271
ag5
aS'ultrafine condensation nuclei'
p4272
asS'1853'
p4273
(lp4274
S'CN  '
p4275
aS'Total Particles Dp>13nm '
p4276
ag5
aS'cm-3'
p4277
ag5
aS'condensation nuclei'
p4278
asS'4271'
p4279
(lp4280
S'ALKALI '
p4281
aS'Alkalinity             '
p4282
aS'alk'
p4283
aS'umol/kg'
p4284
aS'f9.1'
p4285
ag1
asS'4001'
p4286
(lp4287
S'upr'
p4288
aS'UPPER ROTOR SPEED     '
p4289
aS'rotor'
p4290
aS'cm/s'
p4291
aS'f10.3'
p4292
aS'interval upper rotor speed, Seadata tripod'
p4293
asS'1254'
p4294
(lp4295
S'St4 '
p4296
aS'Status Beam 4               '
p4297
ag5
ag5
ag5
aS'ADCP Beam 4 Status'
p4298
asS'1255'
p4299
(lp4300
S'StBn'
p4301
aS'Bin Status                  '
p4302
ag5
ag5
ag5
aS'ADCP Bin Status'
p4303
asS'1252'
p4304
(lp4305
S'St2 '
p4306
aS'Status Beam 2               '
p4307
ag5
ag5
ag5
aS'ADCP Beam 2 Status'
p4308
asS'1253'
p4309
(lp4310
S'St3 '
p4311
aS'Status Beam 3               '
p4312
ag5
ag5
ag5
aS'ADCP Beam 3 Status'
p4313
asS'1251'
p4314
(lp4315
S'St1 '
p4316
aS'Status Beam 1               '
p4317
ag5
ag5
ag5
aS'ADCP Beam 1 Status'
p4318
asS'915'
p4319
(lp4320
S'BP '
p4321
aS'BAROMETRIC PRESSURE (MB) '
p4322
ag5
aS'mbar'
p4323
ag5
ag1
asS'420'
p4324
(lp4325
S'WU '
p4326
aS'WIND U (CM/S)            '
p4327
ag240
aS'cm s-1'
p4328
ag5
aS'oceanographic sense (going to)'
p4329
asS'917'
p4330
(lp4331
S'PAR'
p4332
aS'Photosynthetically Active Radiation'
p4333
aS'par'
p4334
aS'umol photons m-2 s-1'
p4335
aS'F7.1'
p4336
ag1
asS'916'
p4337
(lp4338
S'PAR'
p4339
aS'Photosynthetically Active Radiation'
p4340
aS'par'
p4341
ag845
aS'f5.2'
p4342
aS'PAR (instrument units)'
p4343
asS'911'
p4344
(lp4345
S'RH '
p4346
aS'RELATIVE HUMIDITY MIN (%)'
p4347
aS'rh'
p4348
ag611
ag5
ag1
asS'910'
p4349
(lp4350
S'RH '
p4351
aS'RELATIVE HUMIDITY (%)    '
p4352
aS'rh'
p4353
ag611
ag5
aS'PERCENT'
p4354
asS'913'
p4355
(lp4356
S'SH '
p4357
aS'SPECIFIC HUMIDITY (G/KG) '
p4358
ag5
aS'g kg-1'
p4359
ag5
aS'For Ferret'
p4360
asS'912'
p4361
(lp4362
S'RH '
p4363
aS'RELATIVE HUMIDITY MAX (%)'
p4364
aS'rh'
p4365
ag611
ag5
ag1
asS'300'
p4366
(lp4367
S'CS '
p4368
aS'CURRENT SPEED (CM/S)      '
p4369
aS'vspd'
p4370
aS'cm s-1'
p4371
aS'f8.2'
p4372
aS'oceanographic (going to)'
p4373
asS'301'
p4374
(lp4375
S'BS '
p4376
aS'DRIFTER BUOY SPEED (M/S) '
p4377
ag5
aS'm s-1'
p4378
ag5
aS'calculated from lat,lon'
p4379
asS'302'
p4380
(lp4381
S'BS '
p4382
aS'Drifter Buoy Speed (cm/s)'
p4383
ag5
aS'cm s-1'
p4384
ag5
aS'calculated from lat,lon'
p4385
asS'1933'
p4386
(lp4387
S'Ca    '
p4388
aS'Soluble Supermicron Aerosol Calcium              '
p4389
ag5
aS'ug/m^3'
p4390
ag5
ag5
asS'1932'
p4391
(lp4392
S'Ca    '
p4393
aS'Soluble Submicron Aerosol Calcium                '
p4394
ag5
aS'ug/m^3'
p4395
ag5
ag5
asS'1931'
p4396
(lp4397
S'Mg    '
p4398
aS'Soluble Sub10micron Aerosol Magnesium            '
p4399
ag5
aS'ug/m^3'
p4400
ag5
ag5
asS'1930'
p4401
(lp4402
S'Mg    '
p4403
aS'Soluble Supermicron Aerosol Magnesium            '
p4404
ag5
aS'ug/m^3'
p4405
ag5
ag5
asS'1937'
p4406
(lp4407
S'nssK  '
p4408
aS'Soluble Sub10micron Aerosol non-Seasalt Potassium'
p4409
ag5
aS'ug/m^3'
p4410
ag5
ag5
asS'1936'
p4411
(lp4412
S'nssK  '
p4413
aS'Soluble Supermicron Aerosol non-Seasalt Potassium'
p4414
ag5
aS'ug/m^3'
p4415
ag5
ag5
asS'1935'
p4416
(lp4417
S'nssK  '
p4418
aS'Soluble Submicron Aerosol non-Seasalt Potassium  '
p4419
ag5
aS'ug/m^3'
p4420
ag5
ag5
asS'1934'
p4421
(lp4422
S'Ca    '
p4423
aS'Soluble Sub10micron Aerosol Calcium              '
p4424
ag5
aS'ug/m^3'
p4425
ag5
ag1
asS'1939'
p4426
(lp4427
S'nssMg '
p4428
aS'Soluble Supermicron Aerosol non-Seasalt Magnesium'
p4429
ag5
aS'ug/m^3'
p4430
ag5
ag5
asS'1938'
p4431
(lp4432
S'nssMg '
p4433
aS'Soluble Submicron Aerosol non-Seasalt Magnesium  '
p4434
ag5
aS'ug/m^3'
p4435
ag5
ag5
asS'844'
p4436
(lp4437
S'S-2'
p4438
aS'SAL-2 STAND. DEV.        '
p4439
ag5
ag5
ag5
ag1
asS'843'
p4440
(lp4441
S'S+2'
p4442
aS'SAL+2 STAND. DEV.        '
p4443
ag5
ag5
ag5
ag1
asS'842'
p4444
(lp4445
S'SD-'
p4446
aS'SAL-STAND. DEV.          '
p4447
ag5
ag5
ag5
ag1
asS'841'
p4448
(lp4449
S'SD+'
p4450
aS'SAL+STAND. DEV.          '
p4451
ag5
ag5
ag5
ag1
asS'840'
p4452
(lp4453
S'SDS'
p4454
aS'STAND. DEV. (SAL)        '
p4455
ag5
ag5
ag5
ag1
asS'4291'
p4456
(lp4457
S'ARGOPRS_FLAG '
p4458
aS'Argo Pressure Flag    '
p4459
aS'flag'
p4460
ag5
ag5
ag1
asS'4293'
p4461
(lp4462
S'ARGOSAL_FLAG '
p4463
aS'Argo Salinity Flag    '
p4464
aS'flag'
p4465
ag5
ag5
ag1
asS'4292'
p4466
(lp4467
S'ARGOTMP_FLAG '
p4468
aS'Argo Temperature Flag '
p4469
aS'flag'
p4470
ag5
ag5
ag1
asS'4266'
p4471
(lp4472
S'DELC13_FLAG'
p4473
aS'Delta-C13 Flag     '
p4474
aS'flag'
p4475
ag5
ag5
ag1
asS'1208'
p4476
(lp4477
S'Png '
p4478
aS'Pings                    '
p4479
ag5
ag5
ag5
aS'ADCP Pings'
p4480
asS'1986'
p4481
(lp4482
S'Oxlate'
p4483
aS'Soluble Submicron Aerosol Oxalate                '
p4484
ag5
aS'ug/m^3'
p4485
ag5
ag1
asS'1987'
p4486
(lp4487
S'Oxlate'
p4488
aS'Soluble Supermicron Aerosol Oxalate              '
p4489
ag5
aS'ug/m^3'
p4490
ag5
ag1
asS'1984'
p4491
(lp4492
S'IOM   '
p4493
aS'Supermicron Aerosol Inorganic Oxidized Material  '
p4494
ag5
aS'ug/m^3'
p4495
ag5
ag5
asS'1985'
p4496
(lp4497
S'IOM   '
p4498
aS'Sub10micron Aerosol Inorganic Oxidized Material  '
p4499
ag5
aS'ug/m^3'
p4500
ag5
ag5
asS'1982'
p4501
(lp4502
S'Ti    '
p4503
aS'Sub10micron Aerosol Titanium                     '
p4504
ag5
aS'ug/m^3'
p4505
ag5
ag5
asS'1983'
p4506
(lp4507
S'IOM   '
p4508
aS'Submicron Aerosol Inorganic Oxidized Material    '
p4509
ag5
aS'ug/m^3'
p4510
ag5
ag5
asS'1980'
p4511
(lp4512
S'Ti    '
p4513
aS'Submicron Aerosol Titanium                       '
p4514
ag5
aS'ug/m^3'
p4515
ag5
ag5
asS'1981'
p4516
(lp4517
S'Ti    '
p4518
aS'Supermicron Aerosol Titanium                     '
p4519
ag5
aS'ug/m^3'
p4520
ag5
ag5
asS'1731'
p4521
(lp4522
S'F11CORR'
p4523
aS'CORRECTED CFC-11     '
p4524
aS'f11corr'
p4525
aS'pmol/kg'
p4526
aS'f10.6'
p4527
aS'corrected trichloroflouoromethane'
p4528
asS'1732'
p4529
(lp4530
S'F12CORR'
p4531
aS'CORRECTED CFC-12     '
p4532
aS'f12corr'
p4533
aS'pmol/kg'
p4534
aS'f10.6'
p4535
aS'corrected dichlorofluoromethane'
p4536
asS'1988'
p4537
(lp4538
S'Oxlate'
p4539
aS'Soluble Sub10micron Aerosol Oxalate              '
p4540
ag5
aS'ug/m^3'
p4541
ag5
ag1
asS'1989'
p4542
(lp4543
S'Br    '
p4544
aS'Soluble Submicron Aerosol Bromide                '
p4545
ag5
aS'ug/m^3'
p4546
ag5
ag5
asS'3070'
p4547
(lp4548
S'COG'
p4549
aS'Course Over Ground                     '
p4550
aS'COG'
p4551
aS'degrees_T'
p4552
aS'F6.2'
p4553
aS'Ship Course Over Ground'
p4554
asS'3071'
p4555
(lp4556
S'COG'
p4557
aS'Course Over Ground (Trimble P-code GPS)'
p4558
aS'COG'
p4559
aS'degrees_T'
p4560
aS'F6.2'
p4561
aS'Ship Course Over Ground'
p4562
asS'3072'
p4563
(lp4564
S'COG'
p4565
aS'Course Over Ground (North Star GPS)    '
p4566
aS'COG'
p4567
aS'degrees_T'
p4568
aS'F6.2'
p4569
aS'Ship Course Over Ground'
p4570
asS'221'
p4571
(lp4572
S'VAR'
p4573
aS'VARIANCE                 '
p4574
aS'var'
p4575
aS'cm s-1'
p4576
ag5
aS'sqrt(u**2 + v**2) (current variance) '
p4577
asS'220'
p4578
(lp4579
S'AZ '
p4580
aS'AZIMUTH                  '
p4581
aS'az'
p4582
aS'degrees'
p4583
aS'f8.2'
p4584
aS'measure of ice floe rotation'
p4585
asS'9999'
p4586
(lp4587
S'BINS'
p4588
aS'Sample Number, Sample Bins             '
p4589
aS'bins'
p4590
aS'#'
p4591
ag5
ag1
asS'9998'
p4592
(lp4593
S'DESCENT'
p4594
aS'Descent Rate, Descent Rate of CTD             '
p4595
aS'descent'
p4596
aS'm/s'
p4597
ag5
ag1
asS'722'
p4598
(lp4599
S'EV '
p4600
aS'ERROR VELOCITY           '
p4601
ag5
ag5
ag5
aS'RD Acoustic Doppler'
p4602
asS'723'
p4603
(lp4604
S'AMP'
p4605
aS'AMPLITUDE                '
p4606
ag5
ag5
ag5
aS'RD Acoustic Doppler'
p4607
asS'721'
p4608
(lp4609
S'PG '
p4610
aS'PERCENT GOOD PINGS       '
p4611
ag5
ag5
ag5
aS'Acoustic Doppler'
p4612
asS'150'
p4613
(lp4614
S'FR '
p4615
aS'FREON                    '
p4616
ag5
ag5
ag5
ag1
asS'152'
p4617
(lp4618
S'NO3'
p4619
aS'NITRATE (MG AT/L)        '
p4620
aS'NO3'
p4621
aS'mg at/l'
p4622
ag5
ag1
asS'601'
p4623
(lp4624
S'TIM'
p4625
aS'TIME                     '
p4626
aS'time'
p4627
ag5
ag5
aS'units since YYYY-MM-dd hh'
p4628
aS'mm'
p4629
aS'ss'
p4630
asS'600'
p4631
(lp4632
S'TIM'
p4633
aS'TIME (EPIC)              '
p4634
aS'time'
p4635
ag5
aS'f10.0'
p4636
aS'EPIC Time series time hhmm as real number'
p4637
asS'157'
p4638
(lp4639
S'Ptl'
p4640
aS'TOTAL PHOSPHORUS         '
p4641
ag5
aS'mg at/l'
p4642
ag5
aS'J. Reid data '
p4643
asS'156'
p4644
(lp4645
S'PO4'
p4646
aS'PHOSPHATE (MG AT/L)      '
p4647
aS'PO4'
p4648
aS'mg at/l'
p4649
ag5
ag1
asS'159'
p4650
(lp4651
S'pH '
p4652
aS'pH                       '
p4653
ag5
ag5
ag5
aS'J. Reid data'
p4654
asS'158'
p4655
(lp4656
S'SI '
p4657
aS'SILICATE (MG AT/L)       '
p4658
aS'SiO4'
p4659
aS'mg at/l'
p4660
ag5
aS'mg at/l'
p4661
asS'1207'
p4662
(lp4663
S'Rec '
p4664
aS'Records                  '
p4665
ag5
ag5
ag5
aS'ADCP Records'
p4666
asS'1206'
p4667
(lp4668
S'v   '
p4669
aS'Northward Velocity       '
p4670
ag211
aS'cm/s'
p4671
ag5
aS'Northward Velocity'
p4672
asS'1201'
p4673
(lp4674
S'Werr'
p4675
aS'Error Velocity           '
p4676
ag2473
aS'cm/s'
p4677
aS'F8.1'
p4678
aS'ADCP Error Velocity'
p4679
asS'1200'
p4680
(lp4681
S'Tim '
p4682
aS'Ensemble Length          '
p4683
aS'ens_length'
p4684
ag1797
ag5
aS'ADCP Ensemble Length'
p4685
asS'1203'
p4686
(lp4687
S'PGd '
p4688
aS'Percent Good Pings       '
p4689
ag5
ag5
ag5
aS'ADCP Percent Good Pings'
p4690
asS'1202'
p4691
(lp4692
S'AGC '
p4693
aS'Avg. Echo Intensity (AGC)'
p4694
aS'AGC'
p4695
aS'counts'
p4696
aS'F5.1'
p4697
aS'ADCP Beam Averaged AGC'
p4698
asS'9991'
p4699
(lp4700
S'x'
p4701
aS'x axis'
p4702
ag4701
ag5
ag5
aS'x axis'
p4703
asS'4270'
p4704
(lp4705
S'TCARBN_FLAG'
p4706
aS'Total Carbon Flag  '
p4707
aS'flag'
p4708
ag5
ag5
ag1
asS'1894'
p4709
(lp4710
S'SAAb1'
p4711
aS'Submicron Aerosol Absorbance at wavelength 1'
p4712
ag5
aS'Mm-1'
p4713
aS'  '
p4714
ag1
asS'1895'
p4715
(lp4716
S'SAAb2'
p4717
aS'Submicron Aerosol Absorbance at wavelength 2'
p4718
ag5
aS'Mm-1'
p4719
aS'  '
p4720
ag1
asS'1896'
p4721
(lp4722
S'SAAb3'
p4723
aS'Submicron Aerosol Absorbance at wavelength 3'
p4724
ag5
aS'Mm-1'
p4725
aS'  '
p4726
ag1
asS'1890'
p4727
(lp4728
S'AOD10'
p4729
aS'Aerosol Optical Depth Ch-10'
p4730
ag5
ag5
ag5
ag1
asS'1891'
p4731
(lp4732
S'AAb1'
p4733
aS'Aerosol Absorbance at wavelength 1'
p4734
ag5
aS'Mm-1'
p4735
aS'  '
p4736
ag1
asS'1892'
p4737
(lp4738
S'AAb2'
p4739
aS'Aerosol Absorbance at wavelength 2'
p4740
ag5
aS'Mm-1'
p4741
aS'  '
p4742
ag1
asS'1893'
p4743
(lp4744
S'AAb3'
p4745
aS'Aerosol Absorbance at wavelength 3'
p4746
ag5
aS'Mm-1'
p4747
aS'  '
p4748
ag1
asS'398'
p4749
(lp4750
S'DRG'
p4751
aS'DRAG ON MOORING LINE     '
p4752
ag5
ag5
ag5
ag1
asS'48'
p4753
(lp4754
S'SpC '
p4755
aS'Specific Conductance    '
p4756
aS'con'
p4757
aS'mS/cm'
p4758
aS'f10.3'
p4759
aS'temperature compensated to 25C'
p4760
asS'49'
p4761
(lp4762
S'S  '
p4763
aS'SALINITY                 '
p4764
aS'sal'
p4765
ag5
aS'f10.2'
p4766
aS"calculated for XBT's from mean T-S curve, M McCarty"
p4767
asS'951'
p4768
(lp4769
S'DP '
p4770
aS'Dew Point                '
p4771
ag5
aS'degree C'
p4772
ag5
ag1
asS'44'
p4773
(lp4774
S'S3 '
p4775
aS'Alternate Salinity       '
p4776
aS'sal'
p4777
ag5
ag5
aS'Practical Salinity Units'
p4778
asS'45'
p4779
(lp4780
S'S4 '
p4781
aS'Alternate Salinity       '
p4782
aS'sal'
p4783
ag5
ag5
aS'Practical Salinity Units'
p4784
asS'42'
p4785
(lp4786
S'S  '
p4787
aS'SALINITY (PSU)           '
p4788
aS'sal'
p4789
aS'PSU'
p4790
ag5
aS'Practical Salinity Units'
p4791
asS'43'
p4792
(lp4793
S'S0 '
p4794
aS'BOTTLE SALINITY (PSU)    '
p4795
aS'sal'
p4796
aS'PSU'
p4797
ag5
aS'From Salinometer. 1E35 indicates no sample.'
p4798
asS'40'
p4799
(lp4800
S'S  '
p4801
aS'SALINITY (PPT)           '
p4802
aS'sal'
p4803
aS'PPT'
p4804
aS'f10.2'
p4805
aS'From SALIN1'
p4806
asS'41'
p4807
(lp4808
S'S  '
p4809
aS'SALINITY (PSU)           '
p4810
aS'sal'
p4811
aS'PSU'
p4812
ag5
aS'Practical Salinity Units'
p4813
asS'5'
p4814
(lp4815
S'PD '
p4816
aS'PRESSURE DIFFERENCE (DB) '
p4817
aS'depth'
p4818
aS'dbar'
p4819
ag5
ag1
asS'1292'
p4820
(lp4821
S'dac '
p4822
aS'ADCP DAC output           '
p4823
aS'dac'
p4824
aS'counts'
p4825
aS'i10'
p4826
ag1
asS'1293'
p4827
(lp4828
S'vdc '
p4829
aS'ADCP VDC voltage          '
p4830
aS'vdc'
p4831
aS'volts'
p4832
aS'f10.3'
p4833
ag1
asS'1290'
p4834
(lp4835
S'xmtc'
p4836
aS'ADCP transmit current     '
p4837
aS'xmitc'
p4838
aS'amps'
p4839
aS'f10.3'
p4840
ag1
asS'1291'
p4841
(lp4842
S'xmtv'
p4843
aS'ADCP transmit voltage     '
p4844
aS'xmitv'
p4845
aS'volts'
p4846
aS'f10.3'
p4847
ag1
asS'1294'
p4848
(lp4849
S'P'
p4850
aS'ADCP Pressure'
p4851
aS'pres'
p4852
aS'deca-pascals'
p4853
aS'F15.2'
p4854
aS'ADCP Pressure at Transducer Head'
p4855
asS'1295'
p4856
(lp4857
S'PVAR'
p4858
aS'ADCP Pressure Variance'
p4859
aS'pvar'
p4860
aS'deca-pascals'
p4861
aS'F15.2'
p4862
aS'ADCP Pressure Variance at Transducer Head'
p4863
asS'4091'
p4864
(lp4865
S'w   '
p4866
aS'instant vertical velocity '
p4867
ag2473
aS'cm s-1'
p4868
aS'f8.2'
p4869
aS'instantaneous vertical velocity FSIacm'
p4870
asS'1219'
p4871
(lp4872
S'PSD '
p4873
aS'Pitch Std. Dev.          '
p4874
aS'ptch'
p4875
aS'degrees'
p4876
ag5
aS'ADCP Pitch Std. Dev.'
p4877
asS'4096'
p4878
(lp4879
S'rn  '
p4880
aS'north register            '
p4881
ag211
aS'counts'
p4882
aS'i10'
p4883
aS'vacm north register'
p4884
asS'4095'
p4885
(lp4886
S're  '
p4887
aS'east register             '
p4888
ag240
aS'counts'
p4889
aS'i10'
p4890
aS'vacm east register'
p4891
asS'4045'
p4892
(lp4893
S'rtemp'
p4894
aS'RAW TEMPERATURE (MX2)'
p4895
aS'temp'
p4896
aS'counts'
p4897
aS'i10'
p4898
aS'mx-vacm with 2 mx-variables'
p4899
asS'4046'
p4900
(lp4901
S'rtemp'
p4902
aS'RAW TEMPERATURE (MX4)'
p4903
aS'temp'
p4904
aS'counts'
p4905
aS'i10'
p4906
aS'mx-vacm with 4 mx-variables'
p4907
asS'485'
p4908
(lp4909
S'RN '
p4910
aS'RAIN                     '
p4911
ag5
aS'MM'
p4912
ag5
aS'Rainfall derived from OLR'
p4913
asS'480'
p4914
(lp4915
S'OLR'
p4916
aS'OLR                      '
p4917
ag5
aS'W/M**2'
p4918
ag5
aS'Outgoing long wave radiation'
p4919
asS'1807'
p4920
(lp4921
S'O3  '
p4922
aS'Ozone                   '
p4923
aS'o3'
p4924
aS'ppb'
p4925
ag5
ag1
asS'1806'
p4926
(lp4927
S'COe '
p4928
aS'COequilibrator          '
p4929
aS'co'
p4930
aS'ppb'
p4931
ag5
ag1
asS'1805'
p4932
(lp4933
S'COw '
p4934
aS'COwater                 '
p4935
aS'co'
p4936
aS'nmol/L'
p4937
ag5
ag1
asS'1804'
p4938
(lp4939
S'COa '
p4940
aS'COair                   '
p4941
aS'co'
p4942
aS'ppb'
p4943
ag5
ag1
asS'1803'
p4944
(lp4945
S'CH4e'
p4946
aS'CH4equilibrator         '
p4947
aS'ch4'
p4948
aS'ppb'
p4949
ag5
ag1
asS'1802'
p4950
(lp4951
S'CH4w'
p4952
aS'CH4water                '
p4953
aS'ch4'
p4954
aS'nmol/L'
p4955
ag5
ag1
asS'1801'
p4956
(lp4957
S'CH4a'
p4958
aS'CH4air                  '
p4959
aS'ch4'
p4960
aS'ppb'
p4961
ag5
ag1
asS'1800'
p4962
(lp4963
S'Teq '
p4964
aS'Equilibrator Temperature'
p4965
ag5
aS'degree C'
p4966
aS'f10.2'
p4967
ag1
asS'1809'
p4968
(lp4969
S'DMSw'
p4970
aS'DMSwater                '
p4971
aS'dms'
p4972
aS'nmol/L'
p4973
ag5
ag1
asS'1808'
p4974
(lp4975
S'DMSa'
p4976
aS'DMSair                  '
p4977
aS'dms'
p4978
aS'ppt'
p4979
ag5
ag1
asS'1862'
p4980
(lp4981
S'ASG '
p4982
aS'Aerosol Scat Green      '
p4983
ag5
aS'Mm-1'
p4984
ag5
ag1
as.