(dp0
S''
p1
(lp2
S'   '
p3
aS'UNDEFINED                '
p4
aS' '
p5
aS'counts'
p6
ag5
aS'Undefined Variable'
p7
asS'4303'
p8
(lp9
S'fCO2a'
p10
aS'Fugacity of CO2 in Air'
p11
aS'fCO2a'
p12
aS'uatm'
p13
aS'f9.1'
p14
aS'Underway CO2 obs'
p15
asS'4302'
p16
(lp17
S'XCO2w'
p18
aS'Mole Fraction of CO2 in Water'
p19
aS'XCO2'
p20
aS'ppm'
p21
aS'f9.1'
p22
aS'Underway CO2 obs'
p23
asS'4301'
p24
(lp25
S'XCO2a'
p26
aS'Mole Fraction of CO2 in Air'
p27
aS'XCO2'
p28
aS'ppm'
p29
aS'f9.1'
p30
aS'Underway CO2 obs'
p31
asS'4026'
p32
(lp33
S'rpres'
p34
aS'RAW PRESSURE (PAROS,COMP,AB)'
p35
aS'pres'
p36
aS'counts'
p37
aS'i10'
p38
aS'Paroscientific, temp. compensated, A,B calibration'
p39
asS'4027'
p40
(lp41
S'rpres'
p42
aS'RAW PRESSURE (PAROS,UNCOMP,AB)'
p43
aS'pres'
p44
aS'counts'
p45
aS'i10'
p46
aS'Paroscientific, not temp. compensated, A,B calibration'
p47
asS'1268'
p48
(lp49
S'BTRa'
p50
aS'BT Average Range            '
p51
ag5
aS'm'
p52
ag5
aS'ADCP Btm. Trk. Range Average'
p53
asS'4022'
p54
(lp55
S'P   '
p56
aS'INTERVAL PRESSURE        '
p57
aS'pres'
p58
aS'mbar'
p59
aS'f10.3'
p60
aS'interval pressure measurement, Seadata tripod'
p61
asS'4023'
p62
(lp63
S'P   '
p64
aS'AVERAGE BURST PRESSURE   '
p65
aS'pres'
p66
aS'mbar'
p67
aS'f10.3'
p68
aS'average of burst pressures'
p69
asS'4020'
p70
(lp71
S'P   '
p72
aS'AVERAGE RELATIVE PRESSURE'
p73
aS'pres'
p74
aS'mbar'
p75
aS'f10.5'
p76
aS'burst pressure minus interval pressure, Seadata tripod'
p77
asS'4028'
p78
(lp79
S'rpres'
p80
aS'RAW PRESSURE (PAROS,COMP,CD)'
p81
aS'pres'
p82
aS'counts'
p83
aS'i10'
p84
aS'Paroscientific, temp. compensated, C,D calibration'
p85
asS'4029'
p86
(lp87
S'rpres'
p88
aS'RAW PRESSURE (PAROS,UNCOMP,CD)'
p89
aS'pres'
p90
aS'counts'
p91
aS'i10'
p92
aS'Paroscientific, not temp. compensated, C,D calibration'
p93
asS'1948'
p94
(lp95
S'NO3   '
p96
aS'Soluble Supermicron Aerosol Nitrate              '
p97
ag5
aS'ug/m^3'
p98
ag5
ag5
asS'1949'
p99
(lp100
S'NO3   '
p101
aS'Soluble Sub10micron Aerosol Nitrate              '
p102
ag5
aS'ug/m^3'
p103
ag5
ag5
asS'4305'
p104
(lp105
S'pCO2a'
p106
aS'Partial Pressure of CO2 in Air'
p107
aS'pCO2a'
p108
aS'uatm'
p109
aS'f9.1'
p110
aS'Underway CO2 obs'
p111
asS'1942'
p112
(lp113
S'nssCa '
p114
aS'Soluble Supermicron Aerosol non-Seasalt Calcium  '
p115
ag5
aS'ug/m^3'
p116
ag5
ag5
asS'1943'
p117
(lp118
S'nssCa '
p119
aS'Soluble Sub10micron Aerosol non-Seasalt Calcium  '
p120
ag5
aS'ug/m^3'
p121
ag5
ag5
asS'1940'
p122
(lp123
S'nssMg '
p124
aS'Soluble Sub10micron Aerosol non-Seasalt Magnesium'
p125
ag5
aS'ug/m^3'
p126
ag5
ag5
asS'1941'
p127
(lp128
S'nssCa '
p129
aS'Soluble Submicron Aerosol non-Seasalt Calcium    '
p130
ag5
aS'ug/m^3'
p131
ag5
ag5
asS'1946'
p132
(lp133
S'Cl    '
p134
aS'Soluble Sub10micron Aerosol Chloride             '
p135
ag5
aS'ug/m^3'
p136
ag5
ag5
asS'1947'
p137
(lp138
S'NO3   '
p139
aS'Soluble Submicron Aerosol Nitrate                '
p140
ag5
aS'ug/m^3'
p141
ag5
ag5
asS'1944'
p142
(lp143
S'Cl    '
p144
aS'Soluble Submicron Aerosol Chloride               '
p145
ag5
aS'ug/m^3'
p146
ag5
ag5
asS'1945'
p147
(lp148
S'Cl    '
p149
aS'Soluble Supermicron Aerosol Chloride             '
p150
ag5
aS'ug/m^3'
p151
ag5
ag5
asS'344'
p152
(lp153
S'Ut '
p154
aS'TRACK NORMAL GEOST (CM/S)'
p155
aS'un'
p156
aS'cm s-1'
p157
ag5
aS'geostrophic vel normal to track'
p158
asS'0'
p159
(lp160
S'   '
p161
aS'Undefined                '
p162
aS'generic'
p163
aS'units'
p164
aS'format'
p165
aS'Undefined Variable'
p166
asS'340'
p167
(lp168
S'Ug '
p169
aS'GEOSTROPHIC ZONAL (CM/S) '
p170
ag5
aS'cm s-1'
p171
ag5
aS'geostrophic'
p172
asS'341'
p173
(lp174
S'Vg '
p175
aS'GEOSTR MERIDIONAL (CM/S) '
p176
ag5
aS'cm s-1'
p177
ag5
aS'geostrophic'
p178
asS'342'
p179
(lp180
S'Umg'
p181
aS'Umodel-Ugeost (cm/s)     '
p182
ag5
aS'cm s-1'
p183
ag5
ag1
asS'810'
p184
(lp185
S'SDD'
p186
aS'STAND. DEV. (DYN.HT)     '
p187
ag5
ag5
ag5
ag1
asS'4309'
p188
(lp189
S'EqT'
p190
aS'Equilibrator Temperature'
p191
aS'degC'
p192
aS'f9.3'
p193
aS'Underway CO2 obs (ITS-90)'
p194
asS'4308'
p195
(lp196
S'dpCO2'
p197
aS'Delta pCO2'
p198
aS'dpCO2'
p199
aS'uatm'
p200
aS'f9.1'
p201
aS'Underway CO2 obs'
p202
asS'710'
p203
(lp204
S'N  '
p205
aS'NUMBER OF POINTS         '
p206
ag5
ag5
ag5
ag1
asS'421'
p207
(lp208
S'WV '
p209
aS'WIND V (CM/S)            '
p210
aS'v'
p211
aS'cm s-1'
p212
ag5
aS'oceanographic sense (going to)'
p213
asS'3024'
p214
(lp215
S'rWD'
p216
aS'rm young wind dir'
p217
aS'WD'
p218
aS'degree'
p219
aS'f10.2'
p220
aS'rm young wind dir'
p221
asS'423'
p222
(lp223
S'WV '
p224
aS'WIND V (M/S)             '
p225
ag211
aS'm s-1'
p226
ag5
aS'oceanographic sense (going to)'
p227
asS'1701'
p228
(lp229
S'F11'
p230
aS'CFC-11 (PMOL/KG)         '
p231
aS'f11'
p232
aS'pmol/kg'
p233
aS'f10.6'
p234
aS'trichloroflouoromethane'
p235
asS'1702'
p236
(lp237
S'F12'
p238
aS'CFC-12 (PMOL/KG)         '
p239
aS'f12'
p240
aS'pmol/kg'
p241
aS'f10.6'
p242
aS'dichlorofluoromethane'
p243
asS'422'
p244
(lp245
S'WU '
p246
aS'WIND U (M/S)             '
p247
aS'u'
p248
aS'm s-1'
p249
ag5
aS'oceanographic sense (going to)'
p250
asS'4304'
p251
(lp252
S'fCO2w'
p253
aS'Fugacity of CO2 in Water'
p254
aS'fCO2w'
p255
aS'uatm'
p256
aS'f9.1'
p257
aS'Underway CO2 obs'
p258
asS'4225'
p259
(lp260
S'SILCAT '
p261
aS'Silicate'
p262
aS'SiO4          '
p263
aS'umol/kg'
p264
aS'f9.2'
p265
ag1
asS'3007'
p266
(lp267
S'mWB'
p268
aS'manual wet bulb temp'
p269
aS'wbulb'
p270
aS'degree C'
p271
aS'f10.2'
p272
aS'manual wet bulb temp'
p273
asS'1510'
p274
(lp275
S'LAT'
p276
aS'END LATITUDE             '
p277
aS'end_lat'
p278
aS'degree_north'
p279
aS'f10.4'
p280
aS'N positive S negative'
p281
asS'3029'
p282
(lp283
S'ocWSA'
p284
aS'OC Wind Spd Avg'
p285
aS'WS'
p286
aS'knots'
p287
aS'f10.2'
p288
aS'OC Wind Spd Avg'
p289
asS'3028'
p290
(lp291
S'ocWDA'
p292
aS'OC Wind Dir Avg'
p293
aS'WD'
p294
aS'degree'
p295
aS'f10.2'
p296
aS'OC Wind Dir Avg'
p297
asS'3027'
p298
(lp299
S'ocWS'
p300
aS'oc wind speed'
p301
aS'WS'
p302
aS'knots'
p303
aS'f10.2'
p304
aS'oc wind speed'
p305
asS'3026'
p306
(lp307
S'ocWD'
p308
aS'oc true direction'
p309
aS'WD'
p310
aS'degree'
p311
aS'f10.2'
p312
aS'oc true direction'
p313
asS'3025'
p314
(lp315
S'rAT'
p316
aS'rm young air temp'
p317
aS'atemp'
p318
aS'degree C'
p319
aS'f10.2'
p320
aS'rm young air temp'
p321
asS'2980'
p322
(lp323
S'CDOM'
p324
aS'Colored Dissolved Organic Material'
p325
aS'ppb '
p326
aS'output from eco-fluorometers'
p327
asS'3023'
p328
(lp329
S'rWS'
p330
aS'rm young wind speed'
p331
aS'WS'
p332
aS'knots'
p333
aS'f10.2'
p334
aS'rm young wind speed'
p335
asS'3022'
p336
(lp337
S'avS'
p338
aS'avg salinity'
p339
aS'S'
p340
aS'ppt'
p341
aS'f10.2'
p342
aS'avg salinity'
p343
asS'3021'
p344
(lp345
S'avT'
p346
aS'avg temperature'
p347
aS'T'
p348
aS'degree C'
p349
aS'f10.2'
p350
aS'avg temperature'
p351
asS'3020'
p352
(lp353
S'avC'
p354
aS'avg conductivity'
p355
aS'C'
p356
aS'mmhos'
p357
aS'f10.2'
p358
aS'avg conductivity'
p359
asS'1409'
p360
(lp361
S'rvane'
p362
aS'ENCODED VANE           '
p363
aS'vane'
p364
aS'128.lvl.binary'
p365
aS'i10'
p366
aS'vacm grey code vane'
p367
asS'1408'
p368
(lp369
S'rcomp'
p370
aS'ENCODED COMPASS        '
p371
aS'comp'
p372
aS'128.lvl.binary'
p373
aS'i10'
p374
aS'vacm grey code compass'
p375
asS'520'
p376
(lp377
S'S  '
p378
aS'Distance                 '
p379
aS'dist'
p380
aS'km'
p381
aS'f8.2'
p382
ag1
asS'521'
p383
(lp384
S'AD '
p385
aS'Alongshore Distance      '
p386
aS'dist'
p387
aS'km'
p388
aS'f8.2'
p389
ag1
asS'522'
p390
(lp391
S'OD '
p392
aS'Offshore Distance        '
p393
aS'dist'
p394
aS'km'
p395
aS'f8.2'
p396
ag1
asS'1403'
p397
(lp398
S'van '
p399
aS'VANE ANGLE              '
p400
aS'vane'
p401
aS'degrees'
p402
aS'f10.1'
p403
aS'current orientation to instrument'
p404
asS'1402'
p405
(lp406
S'van '
p407
aS'AMP vane                '
p408
aS'vane'
p409
aS'degrees'
p410
aS'f10.2'
p411
aS'vane reading'
p412
asS'1401'
p413
(lp414
S'hdg '
p415
aS'AMP compass heading     '
p416
aS'comp'
p417
aS'degrees'
p418
aS'f10.2'
p419
aS'compass heading'
p420
asS'1407'
p421
(lp422
S'comp'
p423
aS'RAW COMPASS VOLTS (MIDAS)'
p424
aS'comp'
p425
aS'counts'
p426
aS'i10'
p427
aS'MIDAS raw compass voltage'
p428
asS'1406'
p429
(lp430
S'comp'
p431
aS'ORIENTATION (BASS)      '
p432
aS'comp'
p433
aS'degrees'
p434
aS'f10.3'
p435
aS'orientation of BASS pods'
p436
asS'1404'
p437
(lp438
S'comp'
p439
aS'COMPASS (m)             '
p440
aS'comp'
p441
aS'degreeM'
p442
aS'f10.1'
p443
aS'instrument orientation to magnetic north'
p444
asS'1234'
p445
(lp446
S'Sv2 '
p447
aS'Backscattering Strength Beam 2'
p448
aS'Sv'
p449
aS'dB'
p450
ag5
aS'ADCP Bksctr., ref to noise cal'
p451
asS'1235'
p452
(lp453
S'Sv3 '
p454
aS'Backscattering Strength Beam 3'
p455
aS'Sv'
p456
aS'dB'
p457
ag5
aS'ADCP Bksctr., ref to noise cal'
p458
asS'449'
p459
(lp460
S'GP '
p461
aS'Geopotential             '
p462
aS'GP'
p463
aS'm2/s2'
p464
aS'f10.2 '
p465
aS'geopotential energy'
p466
asS'448'
p467
(lp468
S'Txy'
p469
aS'TOTAL WIND STRESS        '
p470
ag5
ag5
ag5
aS'sqrt(Tx**2 + Ty**2) (Prog WNDSTR)'
p471
asS'4211'
p472
(lp473
S'CTDTMP '
p474
aS'Temperature, ITS-90    '
p475
aS'temp'
p476
aS'degC'
p477
aS'f9.4'
p478
ag1
asS'1231'
p479
(lp480
S'Sv  '
p481
aS'Mean Backscattering Strength'
p482
aS'Sv'
p483
aS'dB'
p484
ag5
aS'ADCP Mn Bksctr, ref to last bin'
p485
asS'1232'
p486
(lp487
S'Sv  '
p488
aS'Mean Backscattering Strength'
p489
aS'Sv'
p490
aS'dB'
p491
ag5
aS'ADCP Mn Bksctr, ref to noise cal'
p492
asS'1233'
p493
(lp494
S'Sv1 '
p495
aS'Backscattering Strength Beam 1'
p496
aS'Sv'
p497
aS'dB'
p498
ag5
aS'ADCP Bksctr., ref to noise cal'
p499
asS'443'
p500
(lp501
S'PTy'
p502
aS'MERID PSEUDO WIND STRESS '
p503
ag5
aS'm2 s-2'
p504
ag5
aS'Meridional pseudo wind stress'
p505
asS'442'
p506
(lp507
S'PTx'
p508
aS'ZONAL PSEUDO WIND STRESS '
p509
ag5
aS'm2 s-2'
p510
ag5
aS'Zonal pseudo wind stress'
p511
asS'441'
p512
(lp513
S'T-Y'
p514
aS'MERIDIONAL WIND STRESS   '
p515
ag211
aS'dyne cm-2'
p516
ag5
aS'Meridional Wind Stress'
p517
asS'440'
p518
(lp519
S'T-X'
p520
aS'ZONAL WIND STRESS        '
p521
ag248
aS'dyne cm-2'
p522
ag5
aS'Zonal Wind Stress'
p523
asS'447'
p524
(lp525
S' Ty'
p526
aS'MERID WIND STRESS        '
p527
ag5
ag5
ag5
aS'Meridional true wind stress'
p528
asS'446'
p529
(lp530
S' Tx'
p531
aS'ZONAL WIND STRESS        '
p532
ag5
ag5
ag5
aS'Zonal true wind stress'
p533
asS'444'
p534
(lp535
S'Txy'
p536
aS'TOTAL PSEUDO WIND STRESS '
p537
ag5
aS'm2 s-2'
p538
ag5
aS'sqrt(PTx**2 + PTy**2)  (Prog WNDSTR)'
p539
asS'102'
p540
(lp541
S'CL '
p542
aS'PTG CLOCK WORD           '
p543
ag5
ag5
ag5
ag1
asS'103'
p544
(lp545
S'BTL'
p546
aS'NISKIN BOTTLE NUMBER     '
p547
ag5
ag5
ag5
aS'For Bottle files'
p548
asS'100'
p549
(lp550
S'SN '
p551
aS'SCAN NUMBER              '
p552
ag5
ag5
ag5
ag1
asS'101'
p553
(lp554
S'FS '
p555
aS'FRAME SYNC               '
p556
ag5
ag5
ag5
aS'FOR TOPS'
p557
asS'106'
p558
(lp559
S'BAT'
p560
aS'BATTERY VOLTAGE          '
p561
aS'bat'
p562
aS'volts'
p563
aS'f6.2'
p564
ag1
asS'107'
p565
(lp566
S'TRN'
p567
aS'TRANSMISSOMETER VOLTAGE 7'
p568
ag5
ag5
ag5
aS'for P18 CTD data set'
p569
asS'104'
p570
(lp571
S'IQ '
p572
aS'WOCE QUALITY NUMBER      '
p573
ag5
ag5
ag5
aS'See WOCE Document'
p574
asS'105'
p575
(lp576
S'NAV'
p577
aS'NUMBER POINTS IN AVERAGE '
p578
ag5
ag5
ag5
ag1
asS'902'
p579
(lp580
S'Irr'
p581
aS'Irradiance(CTD)          '
p582
ag5
aS'uEin cm-2 s-1'
p583
ag5
ag1
asS'903'
p584
(lp585
S'F  '
p586
aS'Fluorometer (CTD)        '
p587
ag5
aS'mg m-3'
p588
ag5
aS'J.Murray 5/13/92'
p589
asS'900'
p590
(lp591
S'Fvt'
p592
aS'Fluorometer Volts        '
p593
ag5
aS'Volts'
p594
ag5
ag1
asS'38'
p595
(lp596
S'PT '
p597
aS'POTENTIAL TEMP (C)       '
p598
aS'potemp'
p599
ag5
ag5
aS'Potential Temperature (ITS-90)'
p600
asS'906'
p601
(lp602
S'Fch'
p603
aS'Chlorophyll A            '
p604
ag5
aS'ugrams/l'
p605
ag5
aS'(fluorometric) J.Murray 5/9/94'
p606
asS'907'
p607
(lp608
S'Fph'
p609
aS'Phaeopigments      '
p610
ag5
aS'ugrams/l'
p611
ag5
aS'(fluorometric) J.Murray 5/9/94'
p612
asS'904'
p613
(lp614
S'Tr '
p615
aS'Transmissometry (CTD)    '
p616
ag5
aS'%'
p617
ag5
aS'J.Murray 5/13/92'
p618
asS'905'
p619
(lp620
S'PAR'
p621
aS'Photosynthetic Active Radiation'
p622
aS'par'
p623
aS'uEin m-2 s-1'
p624
ag5
aS'J.Murray 5/13/92'
p625
asS'33'
p626
(lp627
S'T  '
p628
aS'CORRECTED TEMPERATURE (C)'
p629
aS'temp'
p630
ag356
aS'f10.4'
p631
aS'corrected for mooring motion'
p632
asS'32'
p633
(lp634
S'T  '
p635
aS'TEMPERATURE (C)          '
p636
aS'temp'
p637
ag356
aS'f10.4'
p638
aS'unknown standard'
p639
asS'31'
p640
(lp641
S'P4 '
p642
aS'POTENTIAL TEMP 4000 (C)  '
p643
aS'potemp'
p644
ag5
ag5
aS'Potential temp with 4000m reference level'
p645
asS'30'
p646
(lp647
S'PT '
p648
aS'POTENTIAL TEMP (C)       '
p649
aS'potemp'
p650
ag5
ag5
aS'PT = Potential Temperature'
p651
asS'36'
p652
(lp653
S'DST'
p654
aS'd(SST)/dt                '
p655
aS'dsst/dt'
p656
aS'C/day'
p657
ag5
ag1
asS'35'
p658
(lp659
S'T2 '
p660
aS'Secondary Temperature    '
p661
aS'temp'
p662
ag356
aS'f10.2'
p663
aS'ITS-1990 Standard'
p664
asS'34'
p665
(lp666
S'T2 '
p667
aS'Secondary Temperature    '
p668
aS'temp'
p669
ag356
aS'f10.2'
p670
aS'IPTS-1968 standard'
p671
asS'1241'
p672
(lp673
S'PGd1'
p674
aS'Percent Good Beam 1         '
p675
ag5
ag5
ag5
aS'ADCP Percent Good Beam 1'
p676
asS'1243'
p677
(lp678
S'PGd3'
p679
aS'Percent Good Beam 3         '
p680
ag5
ag5
ag5
aS'ADCP Percent Good Beam 3'
p681
asS'1242'
p682
(lp683
S'PGd2'
p684
aS'Percent Good Beam 2         '
p685
ag5
ag5
ag5
aS'ADCP Percent Good Beam 2'
p686
asS'1245'
p687
(lp688
S'PG4B'
p689
aS'Percent 4-Beam Solns. Good  '
p690
ag5
ag5
ag5
aS'ADCP Percent 4-Beam Solns. Good'
p691
asS'1244'
p692
(lp693
S'PGd4'
p694
aS'Percent Good Beam 4         '
p695
ag5
ag5
ag5
aS'ADCP Percent Good Beam 4'
p696
asS'1247'
p697
(lp698
S'PGWe'
p699
aS'Percent Error Vel. Good     '
p700
ag5
ag5
ag5
aS'ADCP Percent Error Vel. Good'
p701
asS'1246'
p702
(lp703
S'PG3B'
p704
aS'Percent 3-Beam Solns. Good  '
p705
ag5
ag5
ag5
aS'ADCP Percent 3-Beam Solns. Good'
p706
asS'430'
p707
(lp708
S'WU '
p709
aS'Zonal Wind               '
p710
ag248
aS'm s-1'
p711
ag5
aS'positive toward east'
p712
asS'431'
p713
(lp714
S'WV '
p715
aS'Meridional Wind          '
p716
ag211
aS'm s-1'
p717
ag5
aS'positive toward north'
p718
asS'335'
p719
(lp720
S'V  '
p721
aS'MERIDIONAL CURRENT (CM/S)'
p722
ag211
aS'cm s-1'
p723
ag5
aS'instrument w/r magnetic N'
p724
asS'334'
p725
(lp726
S'U  '
p727
aS'ZONAL CURRENT (CM/S)     '
p728
ag248
aS'cm s-1'
p729
ag5
aS'instrument w/r magnetic N'
p730
asS'337'
p731
(lp732
S'V  '
p733
aS'MERIDIONAL CURRENT (CM/S)'
p734
ag211
aS'cm s-1'
p735
ag5
aS'tracked w/r magnetic N'
p736
asS'336'
p737
(lp738
S'U  '
p739
aS'ZONAL CURRENT (CM/S)     '
p740
ag248
aS'cm s-1'
p741
ag5
aS'tracked w/r magnetic N'
p742
asS'331'
p743
(lp744
S'V  '
p745
aS'MERIDIONAL CURRENT (CM/S)'
p746
ag211
aS'cm s-1'
p747
ag5
aS'measured w/r magnetic N'
p748
asS'330'
p749
(lp750
S'U  '
p751
aS'ZONAL CURRENT (CM/S)     '
p752
ag248
aS'cm s-1'
p753
ag5
aS'measured w/r magnetic N'
p754
asS'333'
p755
(lp756
S'V  '
p757
aS'MERIDIONAL CURRENT (CM/S)'
p758
ag211
aS'cm s-1'
p759
ag5
aS'relative w/r magnetic N'
p760
asS'332'
p761
(lp762
S'U  '
p763
aS'ZONAL CURRENT (CM/S)     '
p764
ag248
aS'cm s-1'
p765
ag5
aS'relative w/r magnetic N'
p766
asS'1372'
p767
(lp768
S'V48'
p769
aS'V Amplitude (CM/S) 48hrs '
p770
aS'v48'
p771
aS'cm s-1'
p772
ag5
aS'measured w/r true N'
p773
asS'1908'
p774
(lp775
S'V08'
p776
aS'VARIABLE 8               '
p777
ag5
ag5
ag5
ag1
asS'1906'
p778
(lp779
S'V06'
p780
aS'VARIABLE 6               '
p781
ag5
ag5
ag5
ag1
asS'1907'
p782
(lp783
S'V07'
p784
aS'VARIABLE 7               '
p785
ag5
ag5
ag5
ag1
asS'1904'
p786
(lp787
S'V04'
p788
aS'VARIABLE 4               '
p789
ag5
ag5
ag5
ag1
asS'1905'
p790
(lp791
S'V05'
p792
aS'VARIABLE 5               '
p793
ag5
ag5
ag5
ag1
asS'1902'
p794
(lp795
S'V02'
p796
aS'VARIABLE 2               '
p797
ag5
ag5
ag5
ag1
asS'1903'
p798
(lp799
S'V03'
p800
aS'VARIABLE 3               '
p801
ag5
ag5
ag5
ag1
asS'1900'
p802
(lp803
S'V00'
p804
aS'VARIABLE 0               '
p805
ag5
ag5
ag5
ag1
asS'1901'
p806
(lp807
S'V01'
p808
aS'VARIABLE 1               '
p809
ag5
ag5
ag5
ag1
asS'854'
p810
(lp811
S'SEP'
p812
aS'STAND. ERR. (PRESS)      '
p813
ag5
ag5
ag5
ag1
asS'850'
p814
(lp815
S'SDP'
p816
aS'STAND. DEV. (PRESS)     '
p817
aS'pres'
p818
aS'mbar'
p819
aS'f10.5'
p820
aS'std. deviation of burst pressures'
p821
asS'851'
p822
(lp823
S'SED'
p824
aS'STAND. ERR. (DYN.HT)     '
p825
ag5
ag5
ag5
ag1
asS'852'
p826
(lp827
S'SET'
p828
aS'STAND. ERR. (TEMP)       '
p829
ag5
ag5
ag5
ag1
asS'853'
p830
(lp831
S'SES'
p832
aS'STAND. ERR. (SAL)        '
p833
ag5
ag5
ag5
ag1
asS'6'
p834
(lp835
S'ISO'
p836
aS'ISOTHERM DEPTH (M)       '
p837
aS'depth'
p838
ag52
ag5
ag1
asS'4263'
p839
(lp840
S'DELC14 '
p841
aS'Delta-C14              '
p842
aS'delc14 '
p843
aS'0/00'
p844
aS'f9.1'
p845
ag1
asS'5001'
p846
(lp847
S'OXYV2'
p848
aS'OXYGEN, SBE43 Voltage             '
p849
aS'ox'
p850
aS'V'
p851
ag5
ag1
asS'4245'
p852
(lp853
S'CFC113 '
p854
aS'Freon-113              '
p855
aS'f113 '
p856
aS'pmol/kg'
p857
aS'f9.3'
p858
ag1
asS'4264'
p859
(lp860
S'DELC14_FLAG'
p861
aS'Delta-C14 Flag     '
p862
aS'flag'
p863
ag5
ag5
ag1
asS'91'
p864
(lp865
S'BV2'
p866
aS'BVF SQUARED (CPH**2)     '
p867
ag5
ag5
ag5
aS'Brunt Vaisala Frequency squared (N*ABS(N))'
p868
asS'90'
p869
(lp870
S'BV '
p871
aS'BVF (CPH)                '
p872
ag5
ag5
ag5
aS'Brunt Vaisala Frequency'
p873
asS'93'
p874
(lp875
S'RI '
p876
aS'RICHARDSONS NUMBER       '
p877
ag5
ag5
ag5
ag1
asS'92'
p878
(lp879
S'R  '
p880
aS'RADIUS OF DEFORM         '
p881
ag5
ag5
ag5
aS'Integral bvf*dz/pi*f'
p882
asS'1991'
p883
(lp884
S'Br    '
p885
aS'Soluble Sub10micron Aerosol Bromide              '
p886
ag5
aS'ug/m^3'
p887
ag5
ag1
asS'1990'
p888
(lp889
S'Br    '
p890
aS'Soluble Supermicron Aerosol Bromide              '
p891
ag5
aS'ug/m^3'
p892
ag5
ag1
asS'9992'
p893
(lp894
S'y'
p895
aS'y axis'
p896
ag895
ag5
ag5
aS'y axis'
p897
asS'5000'
p898
(lp899
S'OXYV1'
p900
aS'OXYGEN, SBE43 Voltage             '
p901
aS'ox'
p902
ag851
ag5
ag1
asS'4075'
p903
(lp904
S'BadBB'
p905
aS'BAD BASS COUNT, AXIS B   '
p906
aS'badbass'
p907
aS'count'
p908
aS'f10.1'
p909
aS'bad data cycle count, BASS pod'
p910
asS'4074'
p911
(lp912
S'BadBA'
p913
aS'BAD BASS COUNT, AXIS A   '
p914
aS'badbass'
p915
aS'count'
p916
aS'f10.1'
p917
aS'bad data cycle count, BASS pod'
p918
asS'4077'
p919
(lp920
S'BadBC'
p921
aS'BAD BASS COUNT, AXIS D   '
p922
aS'badbass'
p923
aS'count'
p924
aS'f10.1'
p925
aS'bad data cycle count, BASS pod'
p926
asS'4076'
p927
(lp928
S'BadBC'
p929
aS'BAD BASS COUNT, AXIS C   '
p930
aS'badbass'
p931
aS'count'
p932
aS'f10.1'
p933
aS'bad data cycle count, BASS pod'
p934
asS'4071'
p935
(lp936
S'BASB'
p937
aS'BASS COUNTS, AXIS B      '
p938
aS'bass'
p939
aS'counts'
p940
aS'f10.1'
p941
aS'basic data of BASS pod'
p942
asS'4070'
p943
(lp944
S'BASA'
p945
aS'BASS COUNTS, AXIS A      '
p946
aS'bass'
p947
aS'counts'
p948
aS'f10.1'
p949
aS'basic data of BASS pod'
p950
asS'4073'
p951
(lp952
S'BASD'
p953
aS'BASS COUNTS, AXIS D      '
p954
aS'bass'
p955
aS'counts'
p956
aS'f10.1'
p957
aS'basic data of BASS pod'
p958
asS'4072'
p959
(lp960
S'BASC'
p961
aS'BASS COUNTS, AXIS C      '
p962
aS'bass'
p963
aS'counts'
p964
aS'f10.1'
p965
aS'basic data of BASS pod'
p966
asS'4265'
p967
(lp968
S'DELC13 '
p969
aS'Delta-C13              '
p970
aS'delc13 '
p971
aS'0/00'
p972
aS'f9.1'
p973
ag1
asS'3013'
p974
(lp975
S'sct'
p976
aS'seacat temperature'
p977
aS'temp'
p978
aS'degree C'
p979
aS'f10.2'
p980
aS'seacat temperature'
p981
asS'3062'
p982
(lp983
S'Hdg'
p984
aS'Ashtech 3DF Heading'
p985
aS'hdg'
p986
aS'degrees_T'
p987
aS'F6.2'
p988
aS'Ship Heading '
p989
asS'3061'
p990
(lp991
S'Hdg'
p992
aS'Gyrocompass Heading'
p993
aS'hdg'
p994
aS'degrees_T'
p995
aS'F6.2'
p996
aS'Ship Heading '
p997
asS'3060'
p998
(lp999
S'Hdg'
p1000
aS'Ship Heading       '
p1001
aS'hdg'
p1002
aS'degrees_T'
p1003
aS'F6.2'
p1004
aS'Ship Heading '
p1005
asS'4030'
p1006
(lp1007
S'rpres'
p1008
aS'RAW PRESSURE (VACM)'
p1009
aS'pres'
p1010
aS'counts'
p1011
aS'i10'
p1012
aS'vacm raw pressure'
p1013
asS'1'
p1014
(lp1015
S'P  '
p1016
aS'PRESSURE (DB)            '
p1017
aS'depth'
p1018
aS'dbar'
p1019
aS'f10.1'
p1020
ag1
asS'1756'
p1021
(lp1022
S'TALK'
p1023
aS'Total Alkalinity        '
p1024
aS'alk'
p1025
aS'meq/l'
p1026
ag5
aS'Total alkalinity from WOD2001'
p1027
asS'1755'
p1028
(lp1029
S'PCO2'
p1030
aS'PARTIAL CO2 PRESSURE (microATM)'
p1031
aS'pco2'
p1032
aS'uATM'
p1033
aS'f6.4'
p1034
aS'Partial CO2 Pressure from Dick Feely'
p1035
asS'1754'
p1036
(lp1037
S'TALK'
p1038
aS'TOTAL ALKALINITY (uM/kg)'
p1039
aS'alk'
p1040
aS'uM/kg'
p1041
aS'f6.1'
p1042
aS'Total Alkalinity from Dick Feely'
p1043
asS'1753'
p1044
(lp1045
S'DIC'
p1046
aS'DISS. INORG. CARBON (umol/kg)'
p1047
aS'dic'
p1048
aS'umol/kg'
p1049
aS'f6.1'
p1050
aS'Dissolved Inorganic Carbon (micromoles/kg) from Dick Feely'
p1051
asS'1752'
p1052
(lp1053
S'NTCO2'
p1054
aS'NORMALIZED TCO2 (uM/kg)'
p1055
aS'ndic'
p1056
aS'uM/kg'
p1057
aS'f6.1'
p1058
aS'Normalized Dissolved Organic Carbon (micromoles/kg)'
p1059
asS'1751'
p1060
(lp1061
S'TCO2'
p1062
aS'TOTAL CO2 (micromoles/kg)'
p1063
aS'dic'
p1064
aS'uM/kg'
p1065
aS'f6.1'
p1066
aS'Dissolved Organic Carbon (micromoles/kg)'
p1067
asS'146'
p1068
(lp1069
S'MHF'
p1070
aS'MERIDIONAL HEAT FLUX     '
p1071
ag5
aS'W m-2'
p1072
ag5
ag1
asS'147'
p1073
(lp1074
S'ZHA'
p1075
aS'ZONAL HEAT ADVECTION     '
p1076
ag5
aS'W m-2'
p1077
ag5
ag1
asS'144'
p1078
(lp1079
S'ZMA'
p1080
aS'ZONAL+MERID HEAT ADVECT  '
p1081
ag5
aS'W m-2'
p1082
ag5
ag1
asS'145'
p1083
(lp1084
S'VHF'
p1085
aS'VERTICAL HEAT FLUX       '
p1086
ag5
aS'W m-2'
p1087
ag5
ag1
asS'142'
p1088
(lp1089
S'QN '
p1090
aS'NET HEATING              '
p1091
ag5
aS'W m-2'
p1092
ag5
ag1
asS'143'
p1093
(lp1094
S'VMF'
p1095
aS'VERTICAL+MERID HEAT FLUX '
p1096
ag5
aS'W m-2'
p1097
ag5
ag1
asS'140'
p1098
(lp1099
S'QI '
p1100
aS'PENETRATIVE RADIA (PING) '
p1101
ag5
ag5
ag5
ag1
asS'141'
p1102
(lp1103
S'QT '
p1104
aS'QT=QS-QB-QE (PING)       '
p1105
ag5
ag5
ag5
ag1
asS'1270'
p1106
(lp1107
S'BTP1'
p1108
aS'BT Percent Good Beam 1      '
p1109
ag5
ag5
ag5
aS'ADCP Btm. Trk. Beam 1 % Good Pings'
p1110
asS'1271'
p1111
(lp1112
S'BTP2'
p1113
aS'BT Percent Good Beam 2      '
p1114
ag5
ag5
ag5
aS'ADCP Btm. Trk. Beam 2 % Good Pings'
p1115
asS'1272'
p1116
(lp1117
S'BTP3'
p1118
aS'BT Percent Good Beam 3      '
p1119
ag5
ag5
ag5
aS'ADCP Btm. Trk. Beam 3 % Good Pings'
p1120
asS'1273'
p1121
(lp1122
S'BTP4'
p1123
aS'BT Percent Good Beam 4      '
p1124
ag5
ag5
ag5
aS'ADCP Btm. Trk. Beam 4 % Good Pings'
p1125
asS'4255'
p1126
(lp1127
S'NEON   '
p1128
aS'Neon                   '
p1129
aS'neon '
p1130
aS'nmol/kg  '
p1131
aS'f8.3'
p1132
ag1
asS'1275'
p1133
(lp1134
S'Un  '
p1135
aS'Track Normal Velocity       '
p1136
aS'un'
p1137
aS'cm/s'
p1138
ag5
aS'ADCP Vel. normal to track'
p1139
asS'148'
p1140
(lp1141
S'MHA'
p1142
aS'MERIDIONAL HEAT ADVECTION'
p1143
ag5
aS'W m-2'
p1144
ag5
ag1
asS'1277'
p1145
(lp1146
S'vel1'
p1147
aS'Beam 1 velocity (mm/s)    '
p1148
ag5
aS'mm s-1'
p1149
aS'f10.2'
p1150
aS'ADCP velocity along beam 1'
p1151
asS'1889'
p1152
(lp1153
S'AOD9 '
p1154
aS'Aerosol Optical Depth Ch-9 '
p1155
ag5
ag5
ag5
ag1
asS'1888'
p1156
(lp1157
S'AOD8 '
p1158
aS'Aerosol Optical Depth Ch-8 '
p1159
ag5
ag5
ag5
ag1
asS'1887'
p1160
(lp1161
S'AOD7 '
p1162
aS'Aerosol Optical Depth Ch-7 '
p1163
ag5
ag5
ag5
ag1
asS'1886'
p1164
(lp1165
S'AOD6 '
p1166
aS'Aerosol Optical Depth Ch-6 '
p1167
ag5
ag5
ag5
ag1
asS'1885'
p1168
(lp1169
S'AOD5 '
p1170
aS'Aerosol Optical Depth Ch-5 '
p1171
ag5
ag5
ag5
ag1
asS'1884'
p1172
(lp1173
S'AOD4 '
p1174
aS'Aerosol Optical Depth Ch-4 '
p1175
ag5
ag5
ag5
ag1
asS'1883'
p1176
(lp1177
S'AOD3 '
p1178
aS'Aerosol Optical Depth Ch-3 '
p1179
ag5
ag5
ag5
ag1
asS'1882'
p1180
(lp1181
S'AOD2 '
p1182
aS'Aerosol Optical Depth Ch-2 '
p1183
ag5
ag5
ag5
ag1
asS'1881'
p1184
(lp1185
S'AOD1 '
p1186
aS'Aerosol Optical Depth Ch-1 '
p1187
ag5
ag5
ag5
ag1
asS'1880'
p1188
(lp1189
S'AODMZA'
p1190
aS'AOD measurement zenith angle'
p1191
ag5
aS'degrees'
p1192
ag5
ag1
asS'1285'
p1193
(lp1194
S'cor1'
p1195
aS'Beam 1 correlation        '
p1196
ag5
aS'counts'
p1197
aS'i10'
p1198
aS'ADCP correlation of beam 1'
p1199
asS'1284'
p1200
(lp1201
S'att4'
p1202
aS'Beam 4 attenuation        '
p1203
ag5
aS'counts'
p1204
aS'i10'
p1205
aS'ADCP attenuation of beam 4'
p1206
asS'1287'
p1207
(lp1208
S'cor3'
p1209
aS'Beam 3 correlation        '
p1210
ag5
aS'counts'
p1211
aS'i10'
p1212
aS'ADCP correlation of beam 3'
p1213
asS'1286'
p1214
(lp1215
S'cor2'
p1216
aS'Beam 2 correlation        '
p1217
ag5
aS'counts'
p1218
aS'i10'
p1219
aS'ADCP correlation of beam 2'
p1220
asS'1281'
p1221
(lp1222
S'att1'
p1223
aS'Beam 1 attenuation        '
p1224
ag5
aS'counts'
p1225
aS'i10'
p1226
aS'ADCP attenuation of beam 1'
p1227
asS'1280'
p1228
(lp1229
S'vel4'
p1230
aS'Beam 4 velocity (mm/s)    '
p1231
ag5
aS'mm s-1'
p1232
aS'f10.2'
p1233
aS'ADCP velocity along beam 4'
p1234
asS'1283'
p1235
(lp1236
S'att3'
p1237
aS'Beam 3 attenuation        '
p1238
ag5
aS'counts'
p1239
aS'i10'
p1240
aS'ADCP attenuation of beam 3'
p1241
asS'1282'
p1242
(lp1243
S'att2'
p1244
aS'Beam 2 attenuation        '
p1245
ag5
aS'counts'
p1246
aS'i10'
p1247
aS'ADCP attenuation of beam 2'
p1248
asS'942'
p1249
(lp1250
S'WB '
p1251
aS'Wet Bulb Temp            '
p1252
ag5
aS'degree C'
p1253
ag5
ag1
asS'1288'
p1254
(lp1255
S'cor4'
p1256
aS'Beam 4 correlation        '
p1257
ag5
aS'counts'
p1258
aS'i10'
p1259
aS'ADCP correlation of beam 4'
p1260
asS'941'
p1261
(lp1262
S'DB '
p1263
aS'Dry Bulb Temp            '
p1264
ag5
aS'degree C'
p1265
ag5
ag1
asS'3001'
p1266
(lp1267
S'Tec '
p1268
aS'ADCP Electronics Temp. '
p1269
aS'temp'
p1270
aS'deg. C'
p1271
aS'F10.2'
p1272
aS'ADCP Electronics Box Temp.'
p1273
asS'1301'
p1274
(lp1275
S'BPR  '
p1276
aS'BOTTOM PRESSURE            '
p1277
ag5
aS'PSIA'
p1278
ag5
aS'Pounds Per Square Inch Absolute'
p1279
asS'4261'
p1280
(lp1281
S'DELHE3 '
p1282
aS'Delta-He3              '
p1283
aS'delhe3 '
p1284
ag617
aS'f9.2'
p1285
ag1
asS'4262'
p1286
(lp1287
S'DELHE3_FLAG'
p1288
aS'Delta-He3 Flag     '
p1289
aS'flag'
p1290
ag5
ag5
ag1
asS'133'
p1291
(lp1292
S'Qs '
p1293
aS'SHORTWAVE RADIATION      '
p1294
ag5
aS'W m-2'
p1295
ag5
ag1
asS'132'
p1296
(lp1297
S'Qs '
p1298
aS'SHORTWAVE RADIATION      '
p1299
ag5
aS'cal day-1 cm-2'
p1300
ag5
ag1
asS'131'
p1301
(lp1302
S'SpH'
p1303
aS'SPECIFIC HEAT, J/KG-DEG-C'
p1304
ag5
aS'J kg-1 C-1'
p1305
ag5
ag1
asS'130'
p1306
(lp1307
S'HTC'
p1308
aS'HEAT CONTENT (JOU/M**2)  '
p1309
ag5
aS'J m-2'
p1310
ag5
ag1
asS'137'
p1311
(lp1312
S'QH '
p1313
aS'LATENT HEAT              '
p1314
ag5
aS'W m-2'
p1315
ag5
ag1
asS'136'
p1316
(lp1317
S'Ql '
p1318
aS'LONGWAVE RADIATION       '
p1319
ag5
aS'W m-2'
p1320
ag5
ag1
asS'135'
p1321
(lp1322
S'Ql '
p1323
aS'LONGWAVE RADIATION       '
p1324
ag5
aS'cal day-1 cm-2'
p1325
ag5
ag1
asS'134'
p1326
(lp1327
S'HQ '
p1328
aS'LOCAL HEATING            '
p1329
ag5
ag5
ag5
ag1
asS'4224'
p1330
(lp1331
S'OXYGEN_FLAG'
p1332
aS'Bottle Oxygen Flag '
p1333
aS'flag'
p1334
ag5
ag5
ag1
asS'1223'
p1335
(lp1336
S'AGC3'
p1337
aS'Echo Intensity (AGC) Beam 3'
p1338
aS'AGC'
p1339
aS'counts'
p1340
ag5
aS'ADCP Beam 3 AGC'
p1341
asS'4226'
p1342
(lp1343
S'SILCAT_FLAG'
p1344
aS'Silicate Flag      '
p1345
aS'flag'
p1346
ag5
ag5
ag1
asS'138'
p1347
(lp1348
S'QB '
p1349
aS'SENSIBLE HEAT            '
p1350
ag5
aS'W m-2'
p1351
ag5
ag1
asS'4220'
p1352
(lp1353
S'CTDOST'
p1354
aS'CTD OXYGEN, %SAT         '
p1355
aS'ox'
p1356
ag617
ag5
ag1
asS'4221'
p1357
(lp1358
S'CTDOXY'
p1359
aS'CTD Oxygen              '
p1360
aS'ox'
p1361
aS'umol/kg'
p1362
aS'f9.1'
p1363
ag1
asS'4222'
p1364
(lp1365
S'CTDOXY_FLAG'
p1366
aS'CTD Oxygen Flag    '
p1367
aS'flag'
p1368
ag5
ag5
ag1
asS'1222'
p1369
(lp1370
S'AGC2'
p1371
aS'Echo Intensity (AGC) Beam 2'
p1372
aS'AGC'
p1373
aS'counts'
p1374
ag5
aS'ADCP Beam 2 AGC'
p1375
asS'24'
p1376
(lp1377
S'AT '
p1378
aS'AIR TEMPERATURE MAX (C)  '
p1379
aS'atemp'
p1380
ag356
ag5
ag1
asS'25'
p1381
(lp1382
S'T  '
p1383
aS'SST (C)                  '
p1384
aS'temp'
p1385
ag356
ag5
ag1
asS'26'
p1386
(lp1387
S'T  '
p1388
aS'SST MIN (C)              '
p1389
aS'temp'
p1390
ag356
ag5
ag1
asS'27'
p1391
(lp1392
S'T  '
p1393
aS'SST MAX (C)              '
p1394
aS'temp'
p1395
ag356
ag5
ag1
asS'20'
p1396
(lp1397
S'T  '
p1398
aS'TEMPERATURE (C)          '
p1399
aS'temp'
p1400
ag356
aS'f10.2'
p1401
aS'IPTS-1968 standard'
p1402
asS'21'
p1403
(lp1404
S'AT '
p1405
aS'AIR TEMPERATURE (C)      '
p1406
aS'atemp'
p1407
ag356
ag5
ag1
asS'22'
p1408
(lp1409
S'T0 '
p1410
aS'THERM TEMPERATURE (C)    '
p1411
aS'temp'
p1412
ag356
ag5
aS'Reversing therm. 1E35 indicates no therm.'
p1413
asS'23'
p1414
(lp1415
S'AT '
p1416
aS'AIR TEMPERATURE MIN (C)  '
p1417
aS'atemp'
p1418
ag356
ag5
ag1
asS'1220'
p1419
(lp1420
S'RSD '
p1421
aS'Roll Std. Dev.           '
p1422
aS'roll'
p1423
aS'degrees'
p1424
ag5
aS'ADCP Roll Std. Dev.'
p1425
asS'28'
p1426
(lp1427
S'T  '
p1428
aS'TEMPERATURE (C)          '
p1429
aS'temp'
p1430
ag356
aS'f10.2 '
p1431
aS'ITS-1990 Standard'
p1432
asS'29'
p1433
(lp1434
S'IT '
p1435
aS'TEMP INTEGRAL            '
p1436
aS'temp'
p1437
ag356
ag5
aS'Depth integrated temperature'
p1438
asS'1371'
p1439
(lp1440
S'U48'
p1441
aS'U Amplitude (CM/S) 48hrs '
p1442
aS'u48'
p1443
aS'cm s-1'
p1444
ag5
aS'measured w/r true N'
p1445
asS'4268'
p1446
(lp1447
S'O18O16_FLAG'
p1448
aS'O18/O16 Ratio Flag '
p1449
aS'flag'
p1450
ag5
ag5
ag1
asS'405'
p1451
(lp1452
S'RWS'
p1453
aS'Wind Speed (rel. to ship)'
p1454
ag5
aS'm s-1'
p1455
ag5
aS'Relative Wind Speed'
p1456
asS'404'
p1457
(lp1458
S'WS '
p1459
aS'Wind Speed               '
p1460
ag5
aS'm s-1'
p1461
ag5
ag1
asS'403'
p1462
(lp1463
S'WS '
p1464
aS'Wind Speed               '
p1465
ag5
aS'knots'
p1466
aS'F6.2'
p1467
aS'Wind Speed'
p1468
asS'402'
p1469
(lp1470
S'WG '
p1471
aS'WIND GUST (M/S)          '
p1472
ag5
aS'm s-1'
p1473
ag5
aS'greatest speed in interval (drifters)'
p1474
asS'401'
p1475
(lp1476
S'WS '
p1477
aS'WIND SPEED (M/S)         '
p1478
ag5
aS'm s-1'
p1479
ag5
ag1
asS'400'
p1480
(lp1481
S'WS '
p1482
aS'WIND SPEED (CM/S)        '
p1483
ag5
aS'cm s-1'
p1484
ag5
ag1
asS'933'
p1485
(lp1486
S'Chl'
p1487
aS'Chlorophyll              '
p1488
ag5
aS'ug/L'
p1489
ag5
ag1
asS'932'
p1490
(lp1491
S'Cla'
p1492
aS'Chlorophyll-a(CTD)       '
p1493
ag5
aS'ugrams/l'
p1494
ag5
ag1
asS'931'
p1495
(lp1496
S'Chv'
p1497
aS'Chlorophyll-a Volts(CTD) '
p1498
ag5
aS'Volts'
p1499
ag5
ag1
asS'937'
p1500
(lp1501
S'CA3'
p1502
aS'Chlorophyll-a Conc       '
p1503
ag5
aS'ugrams/l'
p1504
ag5
aS'WetLabs A-3'
p1505
asS'936'
p1506
(lp1507
S'AA3'
p1508
aS'Chlorophyll-a Absorption '
p1509
ag5
aS'm-1'
p1510
ag5
aS' WetLabs A-3'
p1511
asS'935'
p1512
(lp1513
S'VA3'
p1514
aS'ChlAM Voltage            '
p1515
ag5
aS'volts'
p1516
ag5
aS'WetLabs A-3'
p1517
asS'1955'
p1518
(lp1519
S'nssSO4'
p1520
aS'Soluble Sub10micron Aerosol non-Seasalt Sulfate  '
p1521
ag5
aS'ug/m^3'
p1522
ag5
ag5
asS'1954'
p1523
(lp1524
S'nssSO4'
p1525
aS'Soluble Supermicron Aerosol non-Seasalt Sulfate  '
p1526
ag5
aS'ug/m^3'
p1527
ag5
ag5
asS'1957'
p1528
(lp1529
S'MSA   '
p1530
aS'Soluble Supermicron Aerosol Methane Sulfonic Acid'
p1531
ag5
aS'ug/m^3'
p1532
ag5
ag5
asS'1956'
p1533
(lp1534
S'MSA   '
p1535
aS'Soluble Submicron Aerosol Methane Sulfonic Acid  '
p1536
ag5
aS'ug/m^3'
p1537
ag5
ag5
asS'1951'
p1538
(lp1539
S'SO4   '
p1540
aS'Soluble Supermicron Aerosol Sulfate              '
p1541
ag5
aS'ug/m^3'
p1542
ag5
ag5
asS'1950'
p1543
(lp1544
S'SO4   '
p1545
aS'Soluble Submicron Aerosol Sulfate                '
p1546
ag5
aS'ug/m^3'
p1547
ag5
ag5
asS'1953'
p1548
(lp1549
S'nssSO4'
p1550
aS'Soluble Submicron Aerosol non-Seasalt Sulfate    '
p1551
ag5
aS'ug/m^3'
p1552
ag5
ag5
asS'1952'
p1553
(lp1554
S'SO4   '
p1555
aS'Soluble Sub10micron Aerosol Sulfate              '
p1556
ag5
aS'ug/m^3'
p1557
ag5
ag5
asS'1959'
p1558
(lp1559
S'OC    '
p1560
aS'Submicron Aerosol Organic Carbon                 '
p1561
ag5
aS'ug/m^3'
p1562
ag5
ag5
asS'1958'
p1563
(lp1564
S'MSA   '
p1565
aS'Soluble Sub10micron Aerosol Methane Sulfonic Acid'
p1566
ag5
aS'ug/m^3'
p1567
ag5
ag5
asS'378'
p1568
(lp1569
S'V2 '
p1570
aS'V Tidal Amplitude (CM/S) species2'
p1571
aS'v2'
p1572
aS'cm s-1'
p1573
ag5
aS'measured w/r true N'
p1574
asS'371'
p1575
(lp1576
S'Y  '
p1577
aS'Y POSITION IN NET        '
p1578
ag5
ag5
ag5
aS'tracked TOPS position'
p1579
asS'370'
p1580
(lp1581
S'X  '
p1582
aS'X POSITION IN NET        '
p1583
ag5
ag5
ag5
aS'tracked TOPS position'
p1584
asS'372'
p1585
(lp1586
S'Z  '
p1587
aS'Z POSITION IN NET        '
p1588
ag5
ag5
ag5
aS'tracked TOPS position'
p1589
asS'375'
p1590
(lp1591
S'U1 '
p1592
aS'U Tidal Amplitude (CM/S) species1'
p1593
aS'u1'
p1594
aS'cm s-1'
p1595
ag5
aS'measured w/r true N'
p1596
asS'820'
p1597
(lp1598
S'SDT'
p1599
aS'STAND. DEV. (TEMP)       '
p1600
ag5
ag5
ag5
ag1
asS'377'
p1601
(lp1602
S'U2 '
p1603
aS'U Tidal Amplitude (CM/S) species2'
p1604
aS'u2'
p1605
aS'cm s-1'
p1606
ag5
aS'measured w/r true N'
p1607
asS'376'
p1608
(lp1609
S'V1 '
p1610
aS'V Tidal Amplitude (CM/S) species1'
p1611
aS'v1'
p1612
aS'cm s-1'
p1613
ag5
aS'measured w/r true N'
p1614
asS'4243'
p1615
(lp1616
S'CFC-12 '
p1617
aS'Freon-12               '
p1618
aS'f12'
p1619
aS'pmol/kg'
p1620
aS'f9.3'
p1621
ag1
asS'1278'
p1622
(lp1623
S'vel2'
p1624
aS'Beam 2 velocity (mm/s)    '
p1625
ag5
aS'mm s-1'
p1626
aS'f10.2'
p1627
aS'ADCP velocity along beam 2'
p1628
asS'1279'
p1629
(lp1630
S'vel3'
p1631
aS'Beam 3 velocity (mm/s)    '
p1632
ag5
aS'mm s-1'
p1633
aS'f10.2'
p1634
aS'ADCP velocity along beam 3'
p1635
asS'700'
p1636
(lp1637
S'SD '
p1638
aS'STANDARD DEVIATION       '
p1639
ag5
ag5
ag5
ag1
asS'4312'
p1640
(lp1641
S'FiltXCO2w'
p1642
aS'Filtered Mole Fraction of CO2 in Water'
p1643
aS'XCO2'
p1644
aS'ppm'
p1645
aS'f9.1'
p1646
aS'Underway CO2 obs'
p1647
asS'393'
p1648
(lp1649
S'ML '
p1650
aS'MERIDIONAL TRNS LOWER LIM'
p1651
ag5
aS'm2 s-1'
p1652
ag5
aS'transport per unit width'
p1653
asS'392'
p1654
(lp1655
S'ZL '
p1656
aS'ZONAL TRANSPORT LOWER LIM'
p1657
ag5
aS'm2 s-1'
p1658
ag5
aS'transport per unit width'
p1659
asS'391'
p1660
(lp1661
S'MU '
p1662
aS'MERIDIONAL TRNS UPPER LIM'
p1663
ag5
aS'm2 s-1'
p1664
ag5
aS'transport per unit width'
p1665
asS'390'
p1666
(lp1667
S'ZU '
p1668
aS'ZONAL TRANSPORT UPPER LIM'
p1669
ag5
aS'm2 s-1'
p1670
ag5
aS'transport per unit width'
p1671
asS'397'
p1672
(lp1673
S'Dy '
p1674
aS'MERIDIANAL MOOR LINE DRAG'
p1675
ag5
ag5
ag5
ag1
asS'396'
p1676
(lp1677
S'Dx '
p1678
aS'ZONAL MOORING LINE DRAG  '
p1679
ag5
ag5
ag5
ag1
asS'395'
p1680
(lp1681
S'MCW'
p1682
aS'MERIDIONAL CURRENT WIDTH '
p1683
ag5
ag5
ag5
ag1
asS'394'
p1684
(lp1685
S'ZCW'
p1686
aS'ZONAL CURRENT WIDTH      '
p1687
ag5
ag5
ag5
ag1
asS'80'
p1688
(lp1689
S'SV '
p1690
aS'SOUND VELOCITY (M/S)     '
p1691
ag5
aS'm s-1'
p1692
ag5
ag1
asS'81'
p1693
(lp1694
S'FAC'
p1695
aS'SND SPD CORR. FACTOR     '
p1696
aS'factor'
p1697
ag5
aS'f10.3'
p1698
aS'corr. BASS currents for actual sound speed'
p1699
asS'86'
p1700
(lp1701
S'SVA'
p1702
aS'SP VOL ANOM, 1E-8 M**3/KG'
p1703
ag5
aS'm3 kg-1'
p1704
ag5
ag1
asS'84'
p1705
(lp1706
S'RHO'
p1707
aS'DENSITY (KG/M**3)        '
p1708
aS'den'
p1709
aS'kg m-3'
p1710
aS'f10.2'
p1711
ag1
asS'85'
p1712
(lp1713
S'SPV'
p1714
aS'SPECIFIC VOLUME          '
p1715
ag5
ag5
ag5
ag1
asS'1712'
p1716
(lp1717
S'PF12'
p1718
aS'PCFC-12                 '
p1719
aS'pf12'
p1720
ag5
aS'f5.2'
p1721
aS'CFC-12 equilibrium partial-pressure'
p1722
asS'1711'
p1723
(lp1724
S'PF11'
p1725
aS'PCFC-11                 '
p1726
aS'pf11'
p1727
ag5
aS'f5.2'
p1728
aS'CFC-11 equilibrium partial-pressure'
p1729
asS'4041'
p1730
(lp1731
S'rtemp'
p1732
aS'RAW TEMPERATURE (SEABIRD) '
p1733
aS'temp'
p1734
aS'counts'
p1735
aS'i10'
p1736
aS'Seabird cell raw temperature'
p1737
asS'4042'
p1738
(lp1739
S'rtemp'
p1740
aS'RAW TEMPERATURE (MIDAS THERM) '
p1741
aS'temp'
p1742
aS'counts'
p1743
aS'i10'
p1744
aS'MIDAS thermister raw temperature'
p1745
asS'4043'
p1746
(lp1747
S'rtemp'
p1748
aS'RAW TEMPERATURE (VACM) '
p1749
aS'temp'
p1750
aS'counts'
p1751
aS'i10'
p1752
aS'vacm raw temperature'
p1753
asS'4251'
p1754
(lp1755
S'TRITUM '
p1756
aS'Tritium                '
p1757
aS'tritium'
p1758
aS'TU '
p1759
aS'f9.3'
p1760
ag1
asS'7'
p1761
(lp1762
S'SL '
p1763
aS'SEA LEVEL ANOMALY (M)    '
p1764
aS'depth'
p1765
ag52
ag5
ag1
asS'1879'
p1766
(lp1767
S'AODAMS'
p1768
aS'AOD measurement airmass'
p1769
ag5
aS'atmosphere '
p1770
ag5
ag1
asS'4239'
p1771
(lp1772
S'NO2NO3'
p1773
aS'Nitrate plus Nitrite    '
p1774
aS'NO2NO3'
p1775
aS'umol/l'
p1776
aS'f9.2'
p1777
ag1
asS'4253'
p1778
(lp1779
S'HELIUM '
p1780
aS'Helium                 '
p1781
aS'helium '
p1782
aS'nmol/kg'
p1783
aS'f9.4'
p1784
ag1
asS'4062'
p1785
(lp1786
S'wd  '
p1787
aS'mean wave direction '
p1788
aS'wave_dir'
p1789
aS'degrees'
p1790
aS'f8.2'
p1791
aS'direction dominant waves are coming from, measured clockwise from true north'
p1792
asS'4252'
p1793
(lp1794
S'TRITUM_FLAG'
p1795
aS'Tritium Flag       '
p1796
aS'flag'
p1797
ag5
ag5
ag1
asS'4063'
p1798
(lp1799
S'dwp '
p1800
aS'dominant wave period     '
p1801
aS'wave_period'
p1802
aS's'
p1803
aS'f10.2'
p1804
ag1
asS'4060'
p1805
(lp1806
S'wp  '
p1807
aS'average wave period       '
p1808
aS'wave_period'
p1809
ag1803
aS'f10.2'
p1810
ag1
asS'4254'
p1811
(lp1812
S'HELIUM_FLAG'
p1813
aS'Helium Flag        '
p1814
aS'flag'
p1815
ag5
ag5
ag1
asS'4061'
p1816
(lp1817
S'wh  '
p1818
aS'significant wave height   '
p1819
aS'wave_height'
p1820
ag52
aS'f10.2'
p1821
ag1
asS'1276'
p1822
(lp1823
S'Vt  '
p1824
aS'Track Tangential Velocity   '
p1825
aS'vt'
p1826
aS'cm/s'
p1827
ag5
aS'ADCP Vel. tangential to track'
p1828
asS'4256'
p1829
(lp1830
S'NEON_FLAG'
p1831
aS'Neon Flag            '
p1832
aS'flag'
p1833
ag5
ag5
ag1
asS'3018'
p1834
(lp1835
S'avTD'
p1836
aS'avg true wind dir'
p1837
aS'WD'
p1838
aS'degree'
p1839
aS'f10.2'
p1840
aS'avg true wind dir'
p1841
asS'3019'
p1842
(lp1843
S'avTS'
p1844
aS'avg true wind speed'
p1845
aS'WS'
p1846
aS'm/sec'
p1847
aS'f10.2'
p1848
aS'avg true wind speed'
p1849
asS'3012'
p1850
(lp1851
S'lon1'
p1852
aS'gps1 lon 1 min'
p1853
aS'long'
p1854
aS'degrees'
p1855
aS'f10.3'
p1856
aS'gps1 lon 1 min'
p1857
asS'1380'
p1858
(lp1859
S'Res '
p1860
aS'MTR resistance          '
p1861
aS'res'
p1862
aS'ohm'
p1863
aS'f10.2'
p1864
aS'Instrument resistance'
p1865
asS'3010'
p1866
(lp1867
S'MFdep'
p1868
aS'Miller Freeman depth'
p1869
aS'depth'
p1870
aS'meters'
p1871
aS'f10.1'
p1872
aS'depth from Miller Freeman'
p1873
asS'3011'
p1874
(lp1875
S'lat1'
p1876
aS'gps1 lat 1 min'
p1877
aS'lat'
p1878
aS'degrees'
p1879
aS'f10.3'
p1880
aS'gps1 lat 1 min'
p1881
asS'3016'
p1882
(lp1883
S'scz'
p1884
aS'seacat depth'
p1885
aS'depth'
p1886
aS'meters'
p1887
aS'f10.2'
p1888
aS'seacat depth'
p1889
asS'3017'
p1890
(lp1891
S'Tx  '
p1892
aS'ADCP Transducer Temp.     '
p1893
aS'temp'
p1894
aS'deg. C'
p1895
aS'F10.2'
p1896
aS'ADCP Transducer Temp.'
p1897
asS'3014'
p1898
(lp1899
S'scc'
p1900
aS'seacat conductivity'
p1901
aS'cond'
p1902
aS'mmhos'
p1903
aS'f10.2'
p1904
aS'seacat conductivity'
p1905
asS'3015'
p1906
(lp1907
S'scs'
p1908
aS'seacat salinity'
p1909
aS'sal'
p1910
aS'ppt'
p1911
aS'f10.2'
p1912
aS'seacat salinity'
p1913
asS'511'
p1914
(lp1915
S'LON'
p1916
aS'PROJECTED LONGITUDE      '
p1917
aS'lon'
p1918
aS'degree_west'
p1919
aS'f10.4'
p1920
aS'W is positive'
p1921
asS'510'
p1922
(lp1923
S'LAT'
p1924
aS'PROJECTED LATITUDE       '
p1925
aS'lat'
p1926
aS'degree_north'
p1927
aS'f10.4'
p1928
aS'N is positive, S is negative'
p1929
asS'513'
p1930
(lp1931
S'XS '
p1932
aS'Section Distance         '
p1933
aS'dist'
p1934
aS'km'
p1935
aS'f8.2'
p1936
aS'Positive toward end of section'
p1937
asS'512'
p1938
(lp1939
S'LON'
p1940
aS'PROJECTED LONGITUDE      '
p1941
aS'lon'
p1942
aS'degree_east'
p1943
aS'f10.4'
p1944
aS'E is positive'
p1945
asS'514'
p1946
(lp1947
S'YS '
p1948
aS'Transverse Distance      '
p1949
aS'dist'
p1950
aS'km'
p1951
aS'f8.2'
p1952
aS'Positive counterclockwise from section'
p1953
asS'623'
p1954
(lp1955
S'TIM'
p1956
aS'GEOSAT DAYS              '
p1957
aS'time'
p1958
ag5
ag5
aS'Days after 85/01/01'
p1959
asS'622'
p1960
(lp1961
S'TIM'
p1962
aS'GREENWICH DAYS           '
p1963
aS'time'
p1964
ag5
ag5
aS'Days from the start of the century'
p1965
asS'621'
p1966
(lp1967
S'DAT'
p1968
aS'MMDD.HHMM                '
p1969
aS'time'
p1970
ag5
ag5
aS'Date,Time without year (mmdd.hhmm, real no)'
p1971
asS'620'
p1972
(lp1973
S'DAT'
p1974
aS'DATE (EPIC)              '
p1975
aS'time'
p1976
ag5
aS'f10.0'
p1977
aS'EPIC Time series date yymmdd as real number'
p1978
asS'627'
p1979
(lp1980
S'TIM'
p1981
aS'Julian Days              '
p1982
aS'time'
p1983
ag5
ag5
aS'Real number, decimal part gives time of day'
p1984
asS'626'
p1985
(lp1986
S'TIM'
p1987
aS'DAYS SINCE START         '
p1988
aS'time'
p1989
aS'd'
p1990
ag5
aS'real, delta seconds'
p1991
asS'625'
p1992
(lp1993
S'TIM'
p1994
aS'SECONDS SINCE START      '
p1995
aS'time'
p1996
ag1803
ag5
aS'integer, delta seconds'
p1997
asS'624'
p1998
(lp1999
S'TIM'
p2000
aS'EPIC SYSTEM TIME         '
p2001
aS'time'
p2002
ag5
ag5
aS'2 integers, jul day, millisec since midnight'
p2003
asS'450'
p2004
(lp2005
S'WW '
p2006
aS'WIND WORK                '
p2007
ag5
aS'm3 s-3'
p2008
ag5
aS'Wind work'
p2009
asS'4269'
p2010
(lp2011
S'TCARBN '
p2012
aS'Total Carbon           '
p2013
aS'tcarbn '
p2014
aS'umol/kg'
p2015
aS'f9.1'
p2016
ag1
asS'628'
p2017
(lp2018
S'DUR'
p2019
aS'Sample Duration          '
p2020
ag5
aS'min'
p2021
ag5
ag1
asS'1876'
p2022
(lp2023
S'ASSRH'
p2024
aS'Aerosol Scat Nephelometer RH      '
p2025
ag5
ag617
ag5
ag1
asS'1877'
p2026
(lp2027
S'ASSP '
p2028
aS'Aerosol Scat Nephelometer Pressure'
p2029
ag5
aS'mbar'
p2030
ag5
ag1
asS'1874'
p2031
(lp2032
S'SAAb'
p2033
aS'Submicron Aerosol Absorbance'
p2034
ag5
aS'Mm-1'
p2035
ag5
ag1
asS'1875'
p2036
(lp2037
S'ASST '
p2038
aS'Aerosol Scat Nephelometer Temp    '
p2039
ag5
aS'degC'
p2040
ag5
ag1
asS'1872'
p2041
(lp2042
S'SBSR'
p2043
aS'Submicron Aero BkScat Red  '
p2044
ag5
aS'Mm-1'
p2045
ag5
ag1
asS'1873'
p2046
(lp2047
S'AAb '
p2048
aS'Aerosol Absorbance          '
p2049
ag5
aS'Mm-1'
p2050
ag5
ag1
asS'1870'
p2051
(lp2052
S'SBSB'
p2053
aS'Submicron Aero BkScat Blue '
p2054
ag5
aS'Mm-1'
p2055
ag5
ag1
asS'1871'
p2056
(lp2057
S'SBSG'
p2058
aS'Submicron Aero BkScat Green'
p2059
ag5
aS'Mm-1'
p2060
ag5
ag1
asS'3032'
p2061
(lp2062
S'EKdep'
p2063
aS'EK500 depth'
p2064
aS'depth'
p2065
aS'meters'
p2066
aS'f10.1'
p2067
aS'depth from MF EK500'
p2068
asS'170'
p2069
(lp2070
S'SPC'
p2071
aS'SPICE                    '
p2072
aS'spc '
p2073
ag5
ag5
aS'From Phyllis Stabeno (CTD data)'
p2074
asS'976'
p2075
(lp2076
S'VSP'
p2077
aS'SeaPoint Voltage         '
p2078
ag5
aS'volts'
p2079
ag5
aS'SeaPoint fluorometer'
p2080
asS'975'
p2081
(lp2082
S'VWS'
p2083
aS'wetStar Voltage          '
p2084
ag5
aS'volts'
p2085
ag5
aS'Wetlabs wetstar fluorometer'
p2086
asS'974'
p2087
(lp2088
S'fSP'
p2089
aS'SeaPoint fluorometer chl '
p2090
ag5
aS'ug/L'
p2091
ag5
aS'Sea Point fluorometer chlorophyll'
p2092
asS'973'
p2093
(lp2094
S'fWS'
p2095
aS'wetStar fluorometer chl  '
p2096
ag5
aS'ug/L'
p2097
ag5
aS'Wetlabs wetstar fluorometer chlorophyll'
p2098
asS'972'
p2099
(lp2100
S'rCv'
p2101
aS'raw chl-a Volts(CTD)     '
p2102
ag5
aS'Volts'
p2103
ag5
ag1
asS'971'
p2104
(lp2105
S'rFv'
p2106
aS'raw fluorometer Volts(CTD)   '
p2107
ag5
aS'Volts'
p2108
ag5
ag1
asS'182'
p2109
(lp2110
S'NO3'
p2111
aS'NITRATE (micromoles/l)   '
p2112
aS'NO3'
p2113
aS'uM/l'
p2114
ag5
aS'From Jim Murray'
p2115
asS'183'
p2116
(lp2117
S'NO3w'
p2118
aS'Nitrate in Water        '
p2119
aS'NO3'
p2120
aS'umol/L'
p2121
ag5
ag1
asS'1500'
p2122
(lp2123
S'LAT'
p2124
aS'START LATITUDE           '
p2125
aS'start_lat'
p2126
aS'degree_north'
p2127
aS'f10.4'
p2128
aS'N positive S negative'
p2129
asS'181'
p2130
(lp2131
S'SI '
p2132
aS'SiO4                     '
p2133
aS'SiO4'
p2134
aS'mg at/l'
p2135
ag5
aS'J.Murray '
p2136
asS'186'
p2137
(lp2138
S'PO4'
p2139
aS'PHOSPHATE (micromoles/l) '
p2140
aS'PO4'
p2141
aS'uM/l'
p2142
ag5
aS'From Jim Murray'
p2143
asS'187'
p2144
(lp2145
S'UR '
p2146
aS'UREA (micromoles/l)      '
p2147
aS'UR'
p2148
aS'uM/l'
p2149
ag5
aS'From Jim Murray'
p2150
asS'650'
p2151
(lp2152
S'H  '
p2153
aS'LAYER THICKNESS          '
p2154
aS'H'
p2155
ag52
ag5
aS"Mick Spillane's model"
p2156
asS'651'
p2157
(lp2158
S'n  '
p2159
aS'LAYER NUMBER             '
p2160
aS'n'
p2161
ag5
ag5
aS"Mick Spillane's model"
p2162
asS'188'
p2163
(lp2164
S'SI '
p2165
aS'SILICATE (micromoles/l)  '
p2166
aS'SiO4'
p2167
aS'uM/l'
p2168
ag5
aS'From Jim Murray'
p2169
asS'189'
p2170
(lp2171
S'NH4'
p2172
aS'AMMONIUM (micromoles/L)  '
p2173
aS'NH4'
p2174
aS'umol/L'
p2175
ag5
ag1
asS'3081'
p2176
(lp2177
S'SOG'
p2178
aS'Speed Over Ground (Trimble P-code GPS)'
p2179
aS'SOG'
p2180
aS'knots'
p2181
aS'F5.2'
p2182
aS'Ship Speed Over Ground'
p2183
asS'3080'
p2184
(lp2185
S'SOG'
p2186
aS'Speed Over Ground                     '
p2187
aS'SOG'
p2188
aS'knots'
p2189
aS'F5.2'
p2190
aS'Ship Speed Over Ground'
p2191
asS'3082'
p2192
(lp2193
S'SOG'
p2194
aS'Speed Over Ground (North Star GPS)    '
p2195
aS'SOG'
p2196
aS'knots'
p2197
aS'F5.2'
p2198
aS'Ship Speed Over Ground'
p2199
asS'184'
p2200
(lp2201
S'NO2'
p2202
aS'NITRITE (micromoles/l)   '
p2203
aS'NO2'
p2204
aS'uM/l'
p2205
ag5
aS'From Jim Murray'
p2206
asS'185'
p2207
(lp2208
S'NN '
p2209
aS'Nitrate + Nitrite        '
p2210
aS'NO2+NO3'
p2211
aS'umoles/l'
p2212
ag5
aS'Total nutrients'
p2213
asS'11'
p2214
(lp2215
S'DYN'
p2216
aS'DYM HT (SUBSAMPLED DATA) '
p2217
aS'dynhgt'
p2218
ag5
ag5
ag1
asS'10'
p2219
(lp2220
S'DYN'
p2221
aS'DYNAMIC METERS           '
p2222
aS'dynhgt'
p2223
aS'dyn-m'
p2224
aS'f10.4'
p2225
ag1
asS'13'
p2226
(lp2227
S'DYN'
p2228
aS'DYNAMIC HEIGHT (DYN CM)  '
p2229
aS'dynhgt'
p2230
aS'dyn-cm'
p2231
ag5
ag1
asS'12'
p2232
(lp2233
S'dDN'
p2234
aS'DYNn-DYNs                '
p2235
aS'dynhgt'
p2236
ag5
aS'f10.5'
p2237
aS'Diff of North and South Dyn Ht.'
p2238
asS'15'
p2239
(lp2240
S'd1 '
p2241
aS'DYN1 (DYN M)             '
p2242
aS'dynhgt'
p2243
aS'dyn-m'
p2244
ag5
aS'Dyn1 (ctd1) for geost vel calc'
p2245
asS'14'
p2246
(lp2247
S' dD'
p2248
aS'dDYN1-dDYN2 (DYN M)      '
p2249
aS'dynhgt'
p2250
aS'dyn-m'
p2251
ag5
aS'Delta-Dyn (ctd1-ctd2) for geost vel calc'
p2252
asS'17'
p2253
(lp2254
S'ZPG'
p2255
aS'ZONAL PRESSURE GRAD      '
p2256
ag5
ag5
ag5
aS'Calculated for specific areas'
p2257
asS'16'
p2258
(lp2259
S'd2 '
p2260
aS'DYN2 (DYN M)             '
p2261
aS'dynhgt'
p2262
aS'dyn-m'
p2263
ag5
aS'Dyn2 (ctd2) for geost vel calc'
p2264
asS'18'
p2265
(lp2266
S'hght'
p2267
aS'height (m)              '
p2268
aS'height'
p2269
ag52
aS'f10.2'
p2270
ag1
asS'4281'
p2271
(lp2272
S'PCO2 '
p2273
aS'Partial Pressure of CO2  '
p2274
aS'pco2 '
p2275
aS'uatm '
p2276
aS'f9.1'
p2277
ag1
asS'1977'
p2278
(lp2279
S'Ca    '
p2280
aS'Submicron Aerosol Calcium                        '
p2281
ag5
aS'ug/m^3'
p2282
ag5
ag5
asS'1923'
p2283
(lp2284
S'NH4   '
p2285
aS'Soluble Submicron Aerosol Ammonium               '
p2286
ag5
aS'ug/m^3'
p2287
ag5
ag5
asS'4012'
p2288
(lp2289
S'rtrn'
p2290
aS'RAW TRANSMISSOMETER VOLTS'
p2291
aS'trans'
p2292
aS'counts'
p2293
aS'i10'
p2294
aS'MIDAS raw transmissometer voltage'
p2295
asS'4011'
p2296
(lp2297
S'ptrn'
p2298
aS'PERCENT TRANSMISSION     '
p2299
aS'trans'
p2300
ag5
aS'f10.1'
p2301
aS'normalized by 95% of air transmission'
p2302
asS'1502'
p2303
(lp2304
S'LON'
p2305
aS'START LONGITUDE          '
p2306
aS'start_lon'
p2307
aS'degree_east'
p2308
aS'f10.4'
p2309
aS'E positive 165W=195'
p2310
asS'4010'
p2311
(lp2312
S'tran'
p2313
aS'TRANSMISSION (VOLTS)     '
p2314
aS'trans'
p2315
aS'volts'
p2316
aS'f10.3'
p2317
aS'basic measurement, transmissometer'
p2318
asS'4217'
p2319
(lp2320
S'SALNTY_FLAG'
p2321
aS'Bottle Salinity Flag'
p2322
aS'flag'
p2323
ag5
ag5
ag1
asS'4017'
p2324
(lp2325
S'tiltx'
p2326
aS'TILT IN POD X-Z PLANE    '
p2327
aS'tilt'
p2328
aS'degrees'
p2329
aS'f10.3'
p2330
aS'orientation of BASS pods'
p2331
asS'4016'
p2332
(lp2333
S'rtlty'
p2334
aS'RAW TILTY VOLTS          '
p2335
aS'tilt'
p2336
aS'counts'
p2337
aS'i10'
p2338
aS'MIDAS raw tilty voltage'
p2339
asS'4015'
p2340
(lp2341
S'rtltx'
p2342
aS'RAW TILTX VOLTS          '
p2343
aS'tilt'
p2344
aS'counts'
p2345
aS'i10'
p2346
aS'MIDAS raw tiltx voltage'
p2347
asS'4008'
p2348
(lp2349
S'cnt'
p2350
aS'clock counter            '
p2351
aS'count'
p2352
aS'counts'
p2353
aS'i10'
p2354
aS'clock counter'
p2355
asS'4009'
p2356
(lp2357
S'stead'
p2358
aS'STEADINESS             '
p2359
aS'steadiness'
p2360
ag5
aS'f10.4'
p2361
aS'VACM rotor spd normalized by vector spd to measure wave effect'
p2362
asS'1968'
p2363
(lp2364
S'Al    '
p2365
aS'Submicron Aerosol Aluminum                       '
p2366
ag5
aS'ug/m^3'
p2367
ag5
ag5
asS'1969'
p2368
(lp2369
S'Al    '
p2370
aS'Supermicron Aerosol Aluminum                     '
p2371
ag5
aS'ug/m^3'
p2372
ag5
ag5
asS'4216'
p2373
(lp2374
S'SALNTY '
p2375
aS'Bottle Salinity, PSS-78'
p2376
aS'sal'
p2377
aS'PSU'
p2378
aS'f9.4'
p2379
ag1
asS'1964'
p2380
(lp2381
S'BC    '
p2382
aS'Sub10micron Aerosol Black Carbon                 '
p2383
ag5
aS'ug/m^3'
p2384
ag5
ag5
asS'1965'
p2385
(lp2386
S'mass  '
p2387
aS'Submicron Aerosol mass                           '
p2388
ag5
aS'ug/m^3'
p2389
ag5
ag5
asS'1966'
p2390
(lp2391
S'mass  '
p2392
aS'Supermicron Aerosol mass                         '
p2393
ag5
aS'ug/m^3'
p2394
ag5
ag5
asS'1967'
p2395
(lp2396
S'mass  '
p2397
aS'Sub10micron Aerosol mass                         '
p2398
ag5
aS'ug/m^3'
p2399
ag5
ag5
asS'1960'
p2400
(lp2401
S'OC    '
p2402
aS'Supermicron Aerosol Organic Carbon               '
p2403
ag5
aS'ug/m^3'
p2404
ag5
ag5
asS'1961'
p2405
(lp2406
S'OC    '
p2407
aS'Sub10micron Aerosol Organic Carbon               '
p2408
ag5
aS'ug/m^3'
p2409
ag5
ag5
asS'1962'
p2410
(lp2411
S'BC    '
p2412
aS'Submicron Aerosol Black Carbon                   '
p2413
ag5
aS'ug/m^3'
p2414
ag5
ag5
asS'1963'
p2415
(lp2416
S'BC    '
p2417
aS'Supermicron Aerosol Black Carbon                 '
p2418
ag5
aS'ug/m^3'
p2419
ag5
ag5
asS'322'
p2420
(lp2421
S'U  '
p2422
aS'ZONAL CURRENT (CM/S)     '
p2423
ag248
aS'cm s-1'
p2424
ag5
aS'relative w/r true N'
p2425
asS'323'
p2426
(lp2427
S'V  '
p2428
aS'MERIDIONAL CURRENT (CM/S)'
p2429
ag211
aS'cm s-1'
p2430
ag5
aS'relative w/r true N'
p2431
asS'320'
p2432
(lp2433
S'U  '
p2434
aS'ZONAL CURRENT (CM/S)     '
p2435
ag248
aS'cm s-1'
p2436
ag5
aS'measured w/r true N'
p2437
asS'321'
p2438
(lp2439
S'V  '
p2440
aS'MERIDIONAL CURRENT (CM/S)'
p2441
ag211
aS'cm s-1'
p2442
ag5
aS'measured w/r true N'
p2443
asS'326'
p2444
(lp2445
S'U  '
p2446
aS'ZONAL CURRENT (CM/S)     '
p2447
ag248
aS'cm s-1'
p2448
ag5
aS'tracked w/r true N'
p2449
asS'327'
p2450
(lp2451
S'V  '
p2452
aS'MERIDIONAL CURRENT (CM/S)'
p2453
ag211
aS'cm s-1'
p2454
ag5
aS'tracked w/r true N'
p2455
asS'324'
p2456
(lp2457
S'U  '
p2458
aS'ZONAL CURRENT (CM/S)     '
p2459
ag248
aS'cm s-1'
p2460
ag5
aS'instrument w/r true N'
p2461
asS'325'
p2462
(lp2463
S'V  '
p2464
aS'MERIDIONAL CURRENT (CM/S)'
p2465
ag211
aS'cm s-1'
p2466
ag5
aS'instrument w/r true N'
p2467
asS'1224'
p2468
(lp2469
S'AGC4'
p2470
aS'Echo Intensity (AGC) Beam 4'
p2471
aS'AGC'
p2472
aS'counts'
p2473
ag5
aS'ADCP Beam 4 AGC'
p2474
asS'328'
p2475
(lp2476
S'W  '
p2477
aS'VERTICAL VELOCITY (CM/S) '
p2478
aS'w'
p2479
aS'cm s-1'
p2480
ag5
aS'tracked TOPS'
p2481
asS'329'
p2482
(lp2483
S'W  '
p2484
aS'VERTICAL VELOCITY (CM/S) '
p2485
ag2479
aS'cm s-1'
p2486
aS'f8.2'
p2487
ag1
asS'4236'
p2488
(lp2489
S'NITRAT '
p2490
aS'Nitrate                '
p2491
aS'NO3    '
p2492
aS'umol/l   '
p2493
aS'f9.1'
p2494
ag1
asS'200'
p2495
(lp2496
S'DIS'
p2497
aS'VERTICAL DISPLACEMENT    '
p2498
ag5
ag5
ag5
aS'From mean CTD profile'
p2499
asS'205'
p2500
(lp2501
S'SL '
p2502
aS'Sea Level                '
p2503
ag5
aS'mm'
p2504
ag5
ag1
asS'207'
p2505
(lp2506
S'SL_d'
p2507
aS'SEA LEVEL (daily)       '
p2508
aS'SLd'
p2509
ag52
aS'f7.3'
p2510
aS'daily insitu sea level values'
p2511
asS'206'
p2512
(lp2513
S'SL_h'
p2514
aS'SEA LEVEL (hourly)      '
p2515
aS'SLh'
p2516
ag52
aS'f7.3'
p2517
aS'hourly insitu sea level values'
p2518
asS'208'
p2519
(lp2520
S'SL_m'
p2521
aS'SEA LEVEL (monthly)     '
p2522
aS'SLm'
p2523
ag52
aS'f7.3'
p2524
aS'monthly insitu sea level values'
p2525
asS'77'
p2526
(lp2527
S'GN '
p2528
aS'GAMMA N (KG/M**3)        '
p2529
aS'gamma_n'
p2530
aS'kg m-3'
p2531
aS'f10.2'
p2532
aS'Neutral Density'
p2533
asS'76'
p2534
(lp2535
S'S1 '
p2536
aS'SIGMA 1 (KG/M**3)        '
p2537
aS'potden1'
p2538
aS'kg m-3'
p2539
aS'f10.2'
p2540
aS'sigma-theta ref to 1000m'
p2541
asS'75'
p2542
(lp2543
S'S5 '
p2544
aS'SIGMA 5 (KG/M**3)        '
p2545
aS'potden5'
p2546
aS'kg m-3'
p2547
aS'f10.2'
p2548
aS'sigma-theta ref to 5000m'
p2549
asS'74'
p2550
(lp2551
S'S4 '
p2552
aS'SIGMA 4 (KG/M**3)        '
p2553
aS'potden4'
p2554
aS'kg m-3'
p2555
aS'f10.2'
p2556
aS'sigma-theta ref to 4000m'
p2557
asS'73'
p2558
(lp2559
S'S3 '
p2560
aS'SIGMA 3 (KG/M**3)        '
p2561
aS'potden3'
p2562
aS'kg m-3'
p2563
aS'f10.2'
p2564
aS'sigma-theta ref to 3000m'
p2565
asS'72'
p2566
(lp2567
S'S2 '
p2568
aS'SIGMA 2 (KG/M**3)        '
p2569
aS'potden2'
p2570
aS'kg m-3'
p2571
aS'f10.2'
p2572
aS'sigma-theta ref to 2000m'
p2573
asS'71'
p2574
(lp2575
S'STH'
p2576
aS'SIGMA-THETA (KG/M**3)    '
p2577
aS'potden'
p2578
aS'kg m-3 '
p2579
aS'f10.2'
p2580
ag1
asS'70'
p2581
(lp2582
S'ST '
p2583
aS'SIGMA-T (KG/M**3)        '
p2584
aS'den'
p2585
aS'kg m-3'
p2586
aS'f10.2'
p2587
ag1
asS'3056'
p2588
(lp2589
S'DP '
p2590
aS'Dew Point             '
p2591
ag5
aS'degree C'
p2592
aS'f10.2'
p2593
ag5
ag1
asS'1501'
p2594
(lp2595
S'LON'
p2596
aS'START LONGITUDE          '
p2597
aS'start_lon'
p2598
aS'degree_west'
p2599
aS'f10.4'
p2600
aS'W positive 165W=165'
p2601
asS'3055'
p2602
(lp2603
S'qDP'
p2604
aS'Qualimetrics Dew Point'
p2605
ag5
aS'degree C'
p2606
aS'f10.2'
p2607
ag5
ag1
asS'3052'
p2608
(lp2609
S'AT '
p2610
aS'Air Temperature       '
p2611
aS'atemp'
p2612
aS'degree C'
p2613
aS'f10.2'
p2614
ag5
ag1
asS'3053'
p2615
(lp2616
S'AT '
p2617
aS'Air Temperature       '
p2618
aS'atemp'
p2619
aS'degree C'
p2620
aS'f10.2'
p2621
ag5
ag1
asS'3050'
p2622
(lp2623
S'qAT'
p2624
aS'Qualimetrics Air Temp '
p2625
aS'atemp'
p2626
aS'degree C'
p2627
aS'f10.2'
p2628
aS'Qualimetrics Air Temp'
p2629
asS'3051'
p2630
(lp2631
S'AT '
p2632
aS'Air Temperature       '
p2633
aS'atemp'
p2634
aS'degree C'
p2635
aS'f10.2'
p2636
ag5
ag1
asS'1142'
p2637
(lp2638
S'MHF'
p2639
aS'MERID ADVECT HEAT FLUX   '
p2640
ag5
aS'W m-2'
p2641
ag5
aS'ping 12/10/90'
p2642
asS'1143'
p2643
(lp2644
S'VE '
p2645
aS'VERTICAL ENTRAINMENT     '
p2646
ag5
aS'W m-2'
p2647
ag5
aS'ping 12/10/90'
p2648
asS'1269'
p2649
(lp2650
S'BTSD'
p2651
aS'BT Range Std. Dev.          '
p2652
ag5
ag52
ag5
aS'ADCP Btm. Trk. Range St Dev'
p2653
asS'1141'
p2654
(lp2655
S'YDF'
p2656
aS'MERID DIFFUS HEAT FLUX   '
p2657
ag5
aS'W m-2'
p2658
ag5
aS'ping 12/10/90'
p2659
asS'4307'
p2660
(lp2661
S'dfCO2'
p2662
aS'Delta fCO2'
p2663
aS'dfCO2'
p2664
aS'uatm'
p2665
aS'f9.1'
p2666
aS'Underway CO2 obs'
p2667
asS'4306'
p2668
(lp2669
S'pCO2w'
p2670
aS'Partial Pressure of CO2 in Water'
p2671
aS'pCO2w'
p2672
aS'uatm'
p2673
aS'f9.1'
p2674
aS'Underway CO2 obs'
p2675
asS'1144'
p2676
(lp2677
S'Qt '
p2678
aS'HEAT CONTENT CHANGE      '
p2679
ag5
aS'W m-2'
p2680
ag5
aS'ping 12/11/90'
p2681
asS'1145'
p2682
(lp2683
S'Qt*'
p2684
aS'QT*=QNET+QU+QW+QZ        '
p2685
ag5
aS'W m-2'
p2686
ag5
aS'ping 12/11/90'
p2687
asS'1263'
p2688
(lp2689
S'BTw '
p2690
aS'BT Vertical Velocity        '
p2691
ag2479
aS'cm/s'
p2692
ag5
aS'ADCP Btm. Trk. Vertical Velocity'
p2693
asS'1262'
p2694
(lp2695
S'BTv '
p2696
aS'BT Northward Velocity       '
p2697
ag211
aS'cm/s'
p2698
ag5
aS'ADCP Btm. Trk. Northward Velocity'
p2699
asS'1261'
p2700
(lp2701
S'BTu '
p2702
aS'BT Eastward Velocity        '
p2703
ag248
aS'cm/s'
p2704
ag5
aS'ADCP Btm. Trk. Eastward Velocity'
p2705
asS'1260'
p2706
(lp2707
S'BTWe'
p2708
aS'BT Error Velocity           '
p2709
ag2479
aS'cm/s'
p2710
ag5
aS'ADCP Btm. Trk. Error Velocity'
p2711
asS'1267'
p2712
(lp2713
S'BTR4'
p2714
aS'BT Range Beam 4             '
p2715
ag5
ag52
ag5
aS'ADCP Btm. Trk. Range Beam4'
p2716
asS'1266'
p2717
(lp2718
S'BTR3'
p2719
aS'BT Range Beam 3             '
p2720
ag5
ag52
ag5
aS'ADCP Btm. Trk. Range Beam3'
p2721
asS'1265'
p2722
(lp2723
S'BTR2'
p2724
aS'BT Range Beam 2             '
p2725
ag5
ag52
ag5
aS'ADCP Btm. Trk. Range Beam2'
p2726
asS'1264'
p2727
(lp2728
S'BTR1'
p2729
aS'BT Range Beam 1             '
p2730
ag5
ag52
ag5
aS'ADCP Btm. Trk. Range Beam1'
p2731
asS'1221'
p2732
(lp2733
S'AGC1'
p2734
aS'Echo Intensity (AGC) Beam 1'
p2735
aS'AGC'
p2736
aS'counts'
p2737
ag5
aS'ADCP Beam 1 AGC'
p2738
asS'4247'
p2739
(lp2740
S'CCL4 '
p2741
aS'Carbon Tetrachloride     '
p2742
aS'ccl4 '
p2743
aS'pmol/kg'
p2744
aS'f9.3'
p2745
ag1
asS'8'
p2746
(lp2747
S'MLD'
p2748
aS'MIXED LAYER DEPTH (M)    '
p2749
aS'depth'
p2750
ag52
ag5
aS'Program MIXDEP'
p2751
asS'995'
p2752
(lp2753
S'DW'
p2754
aS'Zooplankton Dry Wt./Vol.  '
p2755
ag5
aS'mg/m**3'
p2756
aS'f5.1'
p2757
aS'Zooplankton Dry Weight Conc.'
p2758
asS'994'
p2759
(lp2760
S'DV'
p2761
aS'Zooplankton Disp. Vol.    '
p2762
ag5
aS'ml/m**3'
p2763
aS'f5.2'
p2764
aS'Zooplankton Displacement Volume Conc.'
p2765
asS'996'
p2766
(lp2767
S'DWA'
p2768
aS'Zooplankton Dry Wt./Area '
p2769
ag5
aS'mg/m**2'
p2770
aS'f5.1'
p2771
aS'Zooplankton Dry Weight Areal Conc.'
p2772
asS'991'
p2773
(lp2774
S'SmCNpl'
p2775
aS'Copepod Nauplii (< 150 micrometers) Conc.'
p2776
aS'CopNpl'
p2777
aS'number/l'
p2778
aS'  '
p2779
aS'oncentration of Copepod Nauplii (< 150 micrometers)'
p2780
asS'990'
p2781
(lp2782
S'BUG'
p2783
aS'Plankton Concentration   '
p2784
ag5
aS'number/l'
p2785
ag5
aS' individuals per liter'
p2786
asS'993'
p2787
(lp2788
S'TCNpl'
p2789
aS'Copepod Nauplii Concentration'
p2790
aS'CopNpl'
p2791
aS'number/l'
p2792
ag5
aS'Copepod Nauplii Concentration '
p2793
asS'992'
p2794
(lp2795
S'LgCNpl'
p2796
aS'Copepod Nauplii (>= 150 micrometers) Conc.'
p2797
aS'CopNpl'
p2798
aS'number/l'
p2799
ag5
aS' Concentration of Copepod Nauplii (>= 150 micrometers)'
p2800
asS'120'
p2801
(lp2802
S"T' "
p2803
aS'GRADIENT DT/DZ           '
p2804
ag5
ag5
ag5
aS'Program CTDGRD2'
p2805
asS'121'
p2806
(lp2807
S'DZT'
p2808
aS'GRADIENT DZ/DT           '
p2809
ag5
ag5
ag5
aS'Program CTDGRD3'
p2810
asS'122'
p2811
(lp2812
S"T'X"
p2813
aS'GRADIENT DT/DX           '
p2814
ag5
ag5
ag5
aS'X is longitude'
p2815
asS'123'
p2816
(lp2817
S"T'Y"
p2818
aS'GRADIENT DT/DY           '
p2819
ag5
ag5
ag5
aS'Y is latitude'
p2820
asS'124'
p2821
(lp2822
S'UTX'
p2823
aS'U * dT/dx                '
p2824
ag5
ag5
ag5
aS'X is longitude'
p2825
asS'125'
p2826
(lp2827
S'DZT'
p2828
aS'GRADIENT DZ/DT           '
p2829
ag5
ag5
ag5
aS'Program CTDGRD3'
p2830
asS'126'
p2831
(lp2832
S'ADT'
p2833
aS'AD TEMP GRAD,DEG-C/DB    '
p2834
ag5
ag5
ag5
ag1
asS'4238'
p2835
(lp2836
S'PHSPHT '
p2837
aS'Phosphate              '
p2838
aS'PO4    '
p2839
aS'umol/l   '
p2840
aS'f9.2'
p2841
ag1
asS'4237'
p2842
(lp2843
S'NITRIT '
p2844
aS'Nitrite                '
p2845
aS'NO2    '
p2846
aS'umol/l   '
p2847
aS'f9.2'
p2848
ag1
asS'2'
p2849
(lp2850
S'D  '
p2851
aS'DEPTH (CM)               '
p2852
aS'depth'
p2853
aS'cm'
p2854
ag5
ag1
asS'4235'
p2855
(lp2856
S'SILCAT '
p2857
aS'Silicate               '
p2858
aS'SiO4   '
p2859
aS'umol/l   '
p2860
aS'f9.1'
p2861
ag1
asS'4234'
p2862
(lp2863
S'PHSPHT_FLAG'
p2864
aS'Phosphate Flag     '
p2865
aS'flag'
p2866
ag5
ag5
ag1
asS'4233'
p2867
(lp2868
S'PHSPHT '
p2869
aS'Phosphate              '
p2870
aS'PO4'
p2871
aS'umol/kg'
p2872
aS'f9.2'
p2873
ag1
asS'4232'
p2874
(lp2875
S'NITRIT_FLAG'
p2876
aS'Nitrite Flag       '
p2877
aS'flag'
p2878
ag5
ag5
ag1
asS'4231'
p2879
(lp2880
S'NITRIT '
p2881
aS'Nitrite                '
p2882
aS'NO2'
p2883
aS'umol/kg'
p2884
aS'f9.2'
p2885
ag1
asS'4230'
p2886
(lp2887
S'NO2+NO3_FLAG'
p2888
aS'NO2+NO3 Flag      '
p2889
aS'flag'
p2890
ag5
ag5
ag1
asS'414'
p2891
(lp2892
S'RWD'
p2893
aS'Wind Dir. (rel. to bow)  '
p2894
ag5
aS'degrees'
p2895
ag5
aS'Relative Wind Direction'
p2896
asS'410'
p2897
(lp2898
S'WD '
p2899
aS'WIND DIRECTION           '
p2900
ag5
aS'degrees'
p2901
ag5
aS'     0-360 degrees'
p2902
asS'411'
p2903
(lp2904
S'WD '
p2905
aS'WIND DIRECTION           '
p2906
ag5
aS'degrees'
p2907
ag5
aS'     -180 to 180 degrees'
p2908
asS'412'
p2909
(lp2910
S'WD '
p2911
aS'Wind Direction (from)    '
p2912
ag5
aS'degrees_T'
p2913
aS'F6.2'
p2914
aS'Wind Direction (from)'
p2915
asS'413'
p2916
(lp2917
S'WD '
p2918
aS'Wind Direction (toward)  '
p2919
ag5
aS'degrees_T'
p2920
aS'F6.2'
p2921
aS'Wind Direction (toward)'
p2922
asS'920'
p2923
(lp2924
S'CC '
p2925
aS'CLOUD COVER (OKTAS)      '
p2926
ag5
ag5
ag5
aS'OKTAS'
p2927
asS'921'
p2928
(lp2929
S'CT '
p2930
aS'Cloud Type Code          '
p2931
ag5
ag5
ag5
ag1
asS'922'
p2932
(lp2933
S'VIS'
p2934
aS'Visibility Code          '
p2935
ag5
ag5
ag5
ag1
asS'923'
p2936
(lp2937
S'WC '
p2938
aS'Weather Code             '
p2939
ag5
ag5
ag5
ag1
asS'924'
p2940
(lp2941
S'SC '
p2942
aS'Seastate Code            '
p2943
ag5
ag5
ag5
ag1
asS'925'
p2944
(lp2945
S'D  '
p2946
aS'Water Depth              '
p2947
aS'depth'
p2948
ag52
aS'f10.1'
p2949
ag1
asS'4229'
p2950
(lp2951
S'NO2+NO3'
p2952
aS'Nitrate plus Nitrite'
p2953
aS'NO2+NO3'
p2954
aS'umol/kg'
p2955
aS'f9.2'
p2956
ag1
asS'4215'
p2957
(lp2958
S'CTDSAL_FLAG'
p2959
aS'CTD Salinity Flag  '
p2960
aS'flag'
p2961
ag5
ag5
ag1
asS'319'
p2962
(lp2963
S'BV '
p2964
aS'DRIFTER BUOY V (M/S)     '
p2965
ag211
aS'm s-1'
p2966
ag5
aS'calculated from lat,lon'
p2967
asS'318'
p2968
(lp2969
S'BU '
p2970
aS'DRIFTER BUOY U (M/S)     '
p2971
ag248
aS'm s-1'
p2972
ag5
aS'calculated from lat,lon'
p2973
asS'4214'
p2974
(lp2975
S'CTDSAL '
p2976
aS'CTD Salinity, PSS-78   '
p2977
aS'sal'
p2978
aS'PSU'
p2979
aS'f9.4'
p2980
ag1
asS'311'
p2981
(lp2982
S'BD '
p2983
aS'DRIFTER BUOY DIRECTION   '
p2984
ag5
aS'degrees'
p2985
ag5
aS'oceanographic (going to)'
p2986
asS'310'
p2987
(lp2988
S'CD '
p2989
aS'CURRENT DIRECTION (T)     '
p2990
aS'vdir'
p2991
aS'degrees'
p2992
aS'f8.2'
p2993
aS'oceanographic (going to), using true north'
p2994
asS'317'
p2995
(lp2996
S'BV '
p2997
aS'Drifter Buoy v (cm/s)    '
p2998
ag211
aS'cm s-1'
p2999
ag5
aS'calculated from lat,lon'
p3000
asS'316'
p3001
(lp3002
S'BU '
p3003
aS'Drifter Buoy u (cm/s)    '
p3004
ag248
aS'cm s-1'
p3005
ag5
aS'calculated from lat,lon'
p3006
asS'1920'
p3007
(lp3008
S'Na    '
p3009
aS'Soluble Submicron Aerosol Sodium                 '
p3010
ag5
aS'ug/m^3'
p3011
ag5
ag5
asS'1921'
p3012
(lp3013
S'Na    '
p3014
aS'Soluble Supermicron Aerosol Sodium               '
p3015
ag5
aS'ug/m^3'
p3016
ag5
ag5
asS'1922'
p3017
(lp3018
S'Na    '
p3019
aS'Soluble Sub10micron Aerosol Sodium               '
p3020
ag5
aS'ug/m^3'
p3021
ag5
ag5
asS'1237'
p3022
(lp3023
S'SvSD'
p3024
aS'Backscattering Strength Std. Dev'
p3025
aS'Sv'
p3026
aS'dB'
p3027
ag5
aS'ADCP Bksctr. Std. Dev.'
p3028
asS'1924'
p3029
(lp3030
S'NH4   '
p3031
aS'Soluble Supermicron Aerosol Ammonium             '
p3032
ag5
aS'ug/m^3'
p3033
ag5
ag5
asS'1925'
p3034
(lp3035
S'NH4   '
p3036
aS'Soluble Sub10micron Aerosol Ammonium             '
p3037
ag5
aS'ug/m^3'
p3038
ag5
ag5
asS'1926'
p3039
(lp3040
S'K     '
p3041
aS'Soluble Submicron Aerosol Potassium              '
p3042
ag5
aS'ug/m^3'
p3043
ag5
ag5
asS'1927'
p3044
(lp3045
S'K     '
p3046
aS'Soluble Supermicron Aerosol Potassium            '
p3047
ag5
aS'ug/m^3'
p3048
ag5
ag5
asS'1928'
p3049
(lp3050
S'K     '
p3051
aS'Soluble Sub10micron Aerosol Potassium            '
p3052
ag5
aS'ug/m^3'
p3053
ag5
ag5
asS'1929'
p3054
(lp3055
S'Mg    '
p3056
aS'Soluble Submicron Aerosol Magnesium              '
p3057
ag5
aS'ug/m^3'
p3058
ag5
ag5
asS'4210'
p3059
(lp3060
S'CTDTMP '
p3061
aS'Temperature            '
p3062
aS'temp'
p3063
aS'degC'
p3064
aS'f9.4'
p3065
ag1
asS'4282'
p3066
(lp3067
S'PCO2_FLAG'
p3068
aS'PCO2 Flag            '
p3069
aS'flag'
p3070
ag5
ag5
ag1
asS'4283'
p3071
(lp3072
S'PH '
p3073
aS'pH                         '
p3074
aS'pH '
p3075
ag5
aS'f9.2'
p3076
ag1
asS'4227'
p3077
(lp3078
S'NITRAT '
p3079
aS'Nitrate'
p3080
aS'NO3            '
p3081
aS'umol/kg'
p3082
aS'f9.2'
p3083
ag1
asS'4213'
p3084
(lp3085
S'CTDTMP_FLAG'
p3086
aS'Temperature Flag   '
p3087
aS'flag'
p3088
ag5
ag5
ag1
asS'4284'
p3089
(lp3090
S'PH_FLAG'
p3091
aS'pH Flag                '
p3092
aS'flag'
p3093
ag5
ag5
ag1
asS'4212'
p3094
(lp3095
S'CTDTMP '
p3096
aS'Temperature, IPTS-68   '
p3097
aS'temp'
p3098
aS'degC'
p3099
aS'f9.4'
p3100
ag1
asS'3'
p3101
(lp3102
S'D  '
p3103
aS'DEPTH (M)                '
p3104
aS'depth'
p3105
ag52
aS'f10.1'
p3106
ag1
asS'4223'
p3107
(lp3108
S'OXYGEN '
p3109
aS'Bottle Oxygen          '
p3110
aS'ox'
p3111
aS'umol/kg'
p3112
aS'f9.1'
p3113
ag1
asS'362'
p3114
(lp3115
S'AU '
p3116
aS'ACCELERATION AU          '
p3117
ag5
ag5
ag5
ag1
asS'363'
p3118
(lp3119
S'AV '
p3120
aS'ACCELERATION AV          '
p3121
ag5
ag5
ag5
ag1
asS'360'
p3122
(lp3123
S'AX '
p3124
aS'ACCELERATION AX          '
p3125
ag5
ag5
ag5
ag1
asS'361'
p3126
(lp3127
S'AY '
p3128
aS'ACCELERATION AY          '
p3129
ag5
ag5
ag5
ag1
asS'4267'
p3130
(lp3131
S'O18O16 '
p3132
aS'O18/O16 Ratio          '
p3133
aS'o18o16 '
p3134
aS'0/00'
p3135
aS'f9.2'
p3136
ag1
asS'380'
p3137
(lp3138
S'ZT '
p3139
aS'ZONAL TRANSPORT, M**2/SEC'
p3140
ag5
aS'm2 s-1'
p3141
ag5
aS'total transport per unit width'
p3142
asS'381'
p3143
(lp3144
S'MT '
p3145
aS'MERIDIONAL TRANSPRT,M^2/S'
p3146
aS'U'
p3147
aS'm2 s-1'
p3148
ag5
aS'total transport per unit width'
p3149
asS'382'
p3150
(lp3151
S'ZT+'
p3152
aS'ZONAL TRANSPORT (+)      '
p3153
ag851
aS'm2 s-1'
p3154
ag5
aS'positive zonal transport per unit width'
p3155
asS'383'
p3156
(lp3157
S'MT+'
p3158
aS'MERIDIONAL TRANSPORT (+) '
p3159
ag5
aS'm2 s-1'
p3160
ag5
aS'positive meridional transport per unit width'
p3161
asS'384'
p3162
(lp3163
S'ZT-'
p3164
aS'ZONAL TRANSPORT (-)      '
p3165
ag5
aS'm2 s-1'
p3166
ag5
aS'negative zonal transport per unit width'
p3167
asS'385'
p3168
(lp3169
S'MT-'
p3170
aS'MERIDIONAL TRANSPORT (-) '
p3171
ag5
aS'm2 s-1'
p3172
ag5
aS'negative meridional transport per unit width'
p3173
asS'386'
p3174
(lp3175
S'ZT '
p3176
aS'ZONAL TRANSPORT, M**3/SEC'
p3177
ag3147
aS'm3 s-1'
p3178
ag5
aS'volume transport'
p3179
asS'387'
p3180
(lp3181
S'MT '
p3182
aS'MERIDIONAL TRANSPRT,M^3/S'
p3183
ag851
aS'm3 s-1'
p3184
ag5
aS'volume transport'
p3185
asS'388'
p3186
(lp3187
S'TR '
p3188
aS'TRK NORMAL TRNSPRT, M^3/S'
p3189
ag5
aS'm3 s-1'
p3190
ag5
aS'volume transport normal to track'
p3191
asS'4057'
p3192
(lp3193
S'perv'
p3194
aS'ZERO CROSSING PERIOD, V  '
p3195
aS'period_v'
p3196
ag1803
aS'f10.2'
p3197
aS'zero crossing period of north component, burst BASS data'
p3198
asS'4056'
p3199
(lp3200
S'peru'
p3201
aS'ZERO CROSSING PERIOD, U  '
p3202
aS'period_u'
p3203
ag1803
aS'f10.2'
p3204
aS'zero crossing period of east component, burst BASS data'
p3205
asS'4055'
p3206
(lp3207
S'WVAR'
p3208
aS'UP VELOCITY VARIANCE     '
p3209
aS'wvar'
p3210
aS'cm2/s2'
p3211
aS'f10.2'
p3212
aS'variance of up component, burst BASS data'
p3213
asS'4054'
p3214
(lp3215
S'VWCOV'
p3216
aS'V-W VELOCITY COVARIANCE '
p3217
aS'vwcovar'
p3218
aS'cm2/s2'
p3219
aS'f10.2'
p3220
aS'covariance of north and up, burst BASS data'
p3221
asS'4053'
p3222
(lp3223
S'UWCOV'
p3224
aS'U-W VELOCITY COVARIANCE '
p3225
aS'uwcovar'
p3226
aS'cm2/s2'
p3227
aS'f10.2'
p3228
aS'covariance of east and up, burst BASS data'
p3229
asS'4052'
p3230
(lp3231
S'VVAR'
p3232
aS'NORTH VELOCITY VARIANCE  '
p3233
aS'vvar'
p3234
aS'cm2/s2'
p3235
aS'f10.2'
p3236
aS'variance of north component, burst BASS data'
p3237
asS'4051'
p3238
(lp3239
S'UVCOV'
p3240
aS'U-V VELOCITY COVARIANCE '
p3241
aS'uvcovar'
p3242
aS'cm2/s2'
p3243
aS'f10.2'
p3244
aS'covariance of east and north, burst BASS data'
p3245
asS'4050'
p3246
(lp3247
S'UVAR'
p3248
aS'EAST VELOCITY VARIANCE   '
p3249
aS'uvar'
p3250
aS'cm2/s2'
p3251
aS'f10.2'
p3252
aS'variance of east component, burst BASS data'
p3253
asS'1722'
p3254
(lp3255
S'PF12AGE'
p3256
aS'Pf12age              '
p3257
aS'pf12age'
p3258
aS'years'
p3259
aS'f8.3'
p3260
aS'cfc12 partial pressure age'
p3261
asS'1723'
p3262
(lp3263
S'PFRATAGE'
p3264
aS'Pfratage            '
p3265
aS'pfratage'
p3266
aS'years'
p3267
aS'f8.3'
p3268
aS'cfcratio partial pressure age'
p3269
asS'4228'
p3270
(lp3271
S'NITRAT_FLAG'
p3272
aS'Nitrate Flag       '
p3273
aS'flag'
p3274
ag5
ag5
ag1
asS'1721'
p3275
(lp3276
S'PF11AGE'
p3277
aS'Pf11age              '
p3278
aS'pf11age'
p3279
aS'years'
p3280
aS'f8.3'
p3281
aS'cfc11 partial pressure age'
p3282
asS'4246'
p3283
(lp3284
S'CFC113_FLAG'
p3285
aS'Freon-113 Flag     '
p3286
aS'flag'
p3287
ag5
ag5
ag1
asS'60'
p3288
(lp3289
S'O  '
p3290
aS'OXYGEN (ML/L)            '
p3291
aS'ox'
p3292
aS'ml/l'
p3293
aS'f10.2'
p3294
aS'Dissolved oxygen calculated from CTD values'
p3295
asS'61'
p3296
(lp3297
S'BO '
p3298
aS'BOTTLE OXYGEN (ML/L)     '
p3299
aS'ox'
p3300
aS'ml/l'
p3301
ag5
aS'DO determined by titration. 1E35 ->no sample'
p3302
asS'62'
p3303
(lp3304
S'OST'
p3305
aS'OXYGEN, %SAT             '
p3306
aS'ox'
p3307
ag617
ag5
ag1
asS'3006'
p3308
(lp3309
S'sWD'
p3310
aS'seas wind direction'
p3311
aS'WD'
p3312
aS'degree'
p3313
aS'f10.2'
p3314
aS'seas wind direction'
p3315
asS'64'
p3316
(lp3317
S'AOU'
p3318
aS'APPARENT O2 UTILIZATION  '
p3319
aS'ox'
p3320
aS'ml/l'
p3321
ag5
ag1
asS'65'
p3322
(lp3323
S'O  '
p3324
aS'OXYGEN (UMOL/KG)         '
p3325
aS'ox'
p3326
aS'umol/kg'
p3327
aS'f10.2'
p3328
aS'Dissolved oxygen calculated from CTD values'
p3329
asS'66'
p3330
(lp3331
S'BO '
p3332
aS'BOTTLE OXYGEN (UMOL/KG)  '
p3333
aS'ox'
p3334
aS'umol/kg'
p3335
ag5
aS'DO determined by titration. 1E35 ->no sample'
p3336
asS'3002'
p3337
(lp3338
S'Vs  '
p3339
aS'ADCP Voltage          '
p3340
ag5
ag211
aS'F10.2'
p3341
aS'ADCP Supply Voltage'
p3342
asS'252'
p3343
(lp3344
S'GHR'
p3345
aS'GLOBAL HORIZNTL RADIATION'
p3346
aS'ghr'
p3347
aS'W m-2'
p3348
aS'f8.2'
p3349
aS'global horizontal radiation'
p3350
asS'1209'
p3351
(lp3352
S'EISD'
p3353
aS'Echo Intensity (AGC) Std. Dev.'
p3354
aS'AGC'
p3355
aS'counts'
p3356
aS'F5.1'
p3357
aS'ADCP AGC (1202) Std Dev'
p3358
asS'250'
p3359
(lp3360
S'GHR'
p3361
aS'GLOBAL HORIZNTL RADIATION'
p3362
aS'ghr'
p3363
aS'kJ s-2 d-1'
p3364
aS'f8.2'
p3365
aS'global horizontal radiation'
p3366
asS'251'
p3367
(lp3368
S'PAR'
p3369
aS'PHOTOSYN ACTIVE RADIATION'
p3370
aS'par'
p3371
aS'M ph m-2 d-1'
p3372
aS'f5.2 '
p3373
aS'photosynthetically active radiation'
p3374
asS'3009'
p3375
(lp3376
S'mT'
p3377
aS'manual water temp'
p3378
aS'temp'
p3379
aS'degree C'
p3380
aS'f10.2'
p3381
aS'manual water temp'
p3382
asS'3008'
p3383
(lp3384
S'mAT'
p3385
aS'manual air temp'
p3386
aS'dbulb'
p3387
aS'degree C'
p3388
aS'f10.2'
p3389
aS'manual air temp'
p3390
asS'154'
p3391
(lp3392
S'NO2'
p3393
aS'NITRITE (MG AT/L)        '
p3394
aS'NO2'
p3395
aS'mg at/l'
p3396
ag5
ag1
asS'4248'
p3397
(lp3398
S'CCL4_FLAG'
p3399
aS'Carbon Tetrachloride Flag'
p3400
aS'flag'
p3401
ag5
ag5
ag1
asS'1205'
p3402
(lp3403
S'u   '
p3404
aS'Eastward Velocity        '
p3405
ag248
aS'cm/s'
p3406
ag5
aS'Eastward Velocity'
p3407
asS'938'
p3408
(lp3409
S'CPHL'
p3410
aS'Chlorophyll             '
p3411
ag5
aS'mg/m3'
p3412
ag5
aS'Chlorophyll from WOD2001'
p3413
asS'1204'
p3414
(lp3415
S'w   '
p3416
aS'Vertical Velocity        '
p3417
ag2479
aS'cm/s'
p3418
ag5
aS'Vertical Velocity'
p3419
asS'502'
p3420
(lp3421
S'LON'
p3422
aS'LONGITUDE                '
p3423
aS'lon'
p3424
aS'degree_east'
p3425
aS'f10.4'
p3426
aS'New EPIC-- E is pos, eg, 165E=165, 170W=190'
p3427
asS'4244'
p3428
(lp3429
S'CFC-12_FLAG'
p3430
aS'Freon-12 Flag      '
p3431
aS'flag'
p3432
ag5
ag5
ag1
asS'500'
p3433
(lp3434
S'LAT'
p3435
aS'LATITUDE                 '
p3436
aS'lat'
p3437
aS'degree_north'
p3438
aS'f10.4'
p3439
aS'EPIC-- N is positive, S is negative'
p3440
asS'501'
p3441
(lp3442
S'LON'
p3443
aS'LONGITUDE                '
p3444
aS'lon'
p3445
aS'degree_west'
p3446
aS'f10.4'
p3447
aS'Classic EPIC-- W is pos, eg, 165W=165, 170E=190'
p3448
asS'4272'
p3449
(lp3450
S'ALKALI_FLAG'
p3451
aS'Alkalinity Flag    '
p3452
aS'flag'
p3453
ag5
ag5
ag1
asS'1210'
p3454
(lp3455
S'BIT '
p3456
aS'ADCP BIT Status          '
p3457
ag5
ag5
ag5
aS'ADCP Built-in Test Status'
p3458
asS'1211'
p3459
(lp3460
S'Tx  '
p3461
aS'ADCP Transducer Temp.    '
p3462
aS'temp'
p3463
aS'deg. C'
p3464
aS'F10.2'
p3465
aS'ADCP Transducer Temp'
p3466
asS'1216'
p3467
(lp3468
S'Ptch'
p3469
aS'INST Pitch               '
p3470
aS'ptch'
p3471
aS'degrees'
p3472
aS'F10.2'
p3473
aS'ADCP pitch'
p3474
asS'1217'
p3475
(lp3476
S'Roll'
p3477
aS'INST Roll                '
p3478
aS'roll'
p3479
aS'degrees'
p3480
aS'F10.2'
p3481
aS'ADCP roll'
p3482
asS'1215'
p3483
(lp3484
S'Hdg '
p3485
aS'INST Heading             '
p3486
aS'hdg'
p3487
aS'degrees'
p3488
aS'F10.2'
p3489
aS'ADCP heading'
p3490
asS'465'
p3491
(lp3492
S"V'Z"
p3493
aS'GRADIENT DV/DZ           '
p3494
ag5
aS's-1'
p3495
ag5
aS'Z is depth '
p3496
asS'464'
p3497
(lp3498
S"U'Z"
p3499
aS'GRADIENT DU/DZ           '
p3500
ag5
aS's-1'
p3501
ag5
aS'Z is depth'
p3502
asS'1218'
p3503
(lp3504
S'HSD '
p3505
aS'Heading Std. Dev.        '
p3506
aS'hdg'
p3507
aS'degrees'
p3508
ag5
aS'ADCP Hdg. Std. Dev.'
p3509
asS'466'
p3510
(lp3511
S'Shr'
p3512
aS'Current Shear            '
p3513
ag5
aS's-1'
p3514
ag5
aS"SQRT(U'Z^2+V'Z^2)"
p3515
asS'461'
p3516
(lp3517
S"V'X"
p3518
aS'GRADIENT DV/DX           '
p3519
ag5
aS'1E-5 s-1'
p3520
ag5
aS'X is longitude'
p3521
asS'460'
p3522
(lp3523
S"U'X"
p3524
aS'GRADIENT DU/DX           '
p3525
ag5
aS'1E-5 s-1'
p3526
ag5
aS'X is longitude'
p3527
asS'463'
p3528
(lp3529
S"V'Y"
p3530
aS'GRADIENT DV/DY           '
p3531
ag5
aS'1E-5 s-1'
p3532
ag5
aS'Y is latitude'
p3533
asS'462'
p3534
(lp3535
S"U'Y"
p3536
aS'GRADIENT DU/DY           '
p3537
ag5
aS'1E-5 s-1'
p3538
ag5
aS'Y is latitude'
p3539
asS'1861'
p3540
(lp3541
S'ASB '
p3542
aS'Aerosol Scat Blue       '
p3543
ag5
aS'Mm-1'
p3544
ag5
ag1
asS'1863'
p3545
(lp3546
S'ASR '
p3547
aS'Aerosol Scat Red        '
p3548
ag5
aS'Mm-1'
p3549
ag5
ag1
asS'901'
p3550
(lp3551
S'Fvt'
p3552
aS'Fluorometer Volts(CTD)   '
p3553
ag5
aS'Volts'
p3554
ag5
ag5
asS'1865'
p3555
(lp3556
S'ABSG'
p3557
aS'Aerosol Back Scat Green '
p3558
ag5
aS'Mm-1'
p3559
ag5
ag1
asS'1864'
p3560
(lp3561
S'ABSB'
p3562
aS'Aerosol Back Scat Blue  '
p3563
ag5
aS'Mm-1'
p3564
ag5
ag1
asS'1867'
p3565
(lp3566
S'SASB'
p3567
aS'Submicron AeroScat Blue '
p3568
ag5
aS'Mm-1'
p3569
ag5
ag1
asS'1866'
p3570
(lp3571
S'ABSR'
p3572
aS'Aerosol Back Scat Red   '
p3573
ag5
aS'Mm-1'
p3574
ag5
ag1
asS'1869'
p3575
(lp3576
S'SASR'
p3577
aS'Submicron AeroScat Red  '
p3578
ag5
aS'Mm-1'
p3579
ag5
ag1
asS'1868'
p3580
(lp3581
S'SASG'
p3582
aS'Submicron AeroScat Green'
p3583
ag5
aS'Mm-1'
p3584
ag5
ag1
asS'4241'
p3585
(lp3586
S'CFC-11 '
p3587
aS'Freon-11               '
p3588
aS'f11'
p3589
aS'pmol/kg'
p3590
aS'f9.3'
p3591
ag1
asS'961'
p3592
(lp3593
S'Rn '
p3594
aS'Rainfall                 '
p3595
ag5
aS'10-2 in'
p3596
ag5
ag1
asS'962'
p3597
(lp3598
S'Rr '
p3599
aS'Rain Rate                '
p3600
ag5
aS'mm/hr'
p3601
ag5
ag1
asS'4242'
p3602
(lp3603
S'CFC-11_FLAG'
p3604
aS'Freon-11 Flag      '
p3605
aS'flag'
p3606
ag5
ag5
ag1
asS'1511'
p3607
(lp3608
S'LON'
p3609
aS'END LONGITUDE            '
p3610
aS'end_lon'
p3611
aS'degree_west'
p3612
aS'f10.4'
p3613
aS'W positive 165W=165'
p3614
asS'908'
p3615
(lp3616
S'PAR'
p3617
aS'Photosynthetic Active Radiation'
p3618
aS'par'
p3619
aS'uEin cm-2 s-1'
p3620
ag5
aS'S.Salo 7/1/98'
p3621
asS'1512'
p3622
(lp3623
S'LON'
p3624
aS'END LONGITUDE            '
p3625
aS'end_lon'
p3626
aS'degree_east'
p3627
aS'f10.4'
p3628
aS'E positive 165W=195'
p3629
asS'4080'
p3630
(lp3631
S'u   '
p3632
aS'East(m)                   '
p3633
ag248
aS'cm s-1'
p3634
aS'f8.2'
p3635
aS'U component (magnetic)'
p3636
asS'4081'
p3637
(lp3638
S'v   '
p3639
aS'North(m)                  '
p3640
ag211
aS'cm s-1'
p3641
aS'f8.2'
p3642
aS'V component (magnetic)'
p3643
asS'4082'
p3644
(lp3645
S'u   '
p3646
aS'East(t)                   '
p3647
ag248
aS'cm s-1 '
p3648
aS'f8.2'
p3649
aS'U component (true north)'
p3650
asS'4083'
p3651
(lp3652
S'v   '
p3653
aS'North(t)                  '
p3654
ag211
aS'cm s-1'
p3655
aS'f8.2'
p3656
aS'V component (true North)'
p3657
asS'4084'
p3658
(lp3659
S'u   '
p3660
aS'East(r)                   '
p3661
ag248
aS'cm s-1 '
p3662
aS'f8.2'
p3663
aS'U component (rotated)'
p3664
asS'4085'
p3665
(lp3666
S'v   '
p3667
aS'North(r)                  '
p3668
ag211
aS'cm s-1'
p3669
aS'f8.2'
p3670
aS'V component (rotated)'
p3671
asS'4086'
p3672
(lp3673
S'u   '
p3674
aS'instant East(m)           '
p3675
ag248
aS'cm s-1'
p3676
aS'f8.2'
p3677
aS'instantaneous east comp (magnetic) FSIacm'
p3678
asS'4087'
p3679
(lp3680
S'v   '
p3681
aS'instant North(m)          '
p3682
ag211
aS'cm s-1'
p3683
aS'f8.2'
p3684
aS'instantaneous north comp (magnetic) FSIacm'
p3685
asS'4088'
p3686
(lp3687
S'u   '
p3688
aS'instant East(t)           '
p3689
ag248
aS'cm s-1'
p3690
aS'f8.2'
p3691
aS'instantaneous east comp (true north) FSIacm'
p3692
asS'4089'
p3693
(lp3694
S'v   '
p3695
aS'instant North(t)          '
p3696
ag211
aS'cm s-1'
p3697
aS'f8.2'
p3698
aS'instantaneous north comp (true north) FSIacm'
p3699
asS'1814'
p3700
(lp3701
S'pCOa'
p3702
aS'pCOair                  '
p3703
aS'co'
p3704
aS'micro-atm'
p3705
ag5
ag1
asS'1815'
p3706
(lp3707
S'pCOw'
p3708
aS'pCOwater                '
p3709
aS'co'
p3710
aS'micro-atm'
p3711
ag5
ag1
asS'1816'
p3712
(lp3713
S'SO2 '
p3714
aS'Atmospheric Sulfur Dioxide'
p3715
aS'so2'
p3716
aS'ppb'
p3717
ag5
ag1
asS'1810'
p3718
(lp3719
S'Rn  '
p3720
aS'Radon                   '
p3721
ag5
aS'mBq m-3'
p3722
ag5
ag1
asS'1811'
p3723
(lp3724
S'pC4a'
p3725
aS'pCH4air                 '
p3726
aS'ch4'
p3727
aS'micro-atm'
p3728
ag5
ag1
asS'1812'
p3729
(lp3730
S'pC4w'
p3731
aS'pCH4water               '
p3732
aS'ch4'
p3733
aS'micro-atm'
p3734
ag5
ag1
asS'3090'
p3735
(lp3736
S'LAT'
p3737
aS'Latitude (Trimble P-code GPS)'
p3738
aS'lat'
p3739
aS'degree_north'
p3740
aS'F8.5'
p3741
aS'Latitude '
p3742
asS'3091'
p3743
(lp3744
S'LAT'
p3745
aS'Latitude (North Star GPS)    '
p3746
aS'lat'
p3747
aS'degree_north'
p3748
aS'F8.5'
p3749
aS'Latitude '
p3750
asS'9'
p3751
(lp3752
S'P  '
p3753
aS'SEA LEVEL PRESSURE (MB)  '
p3754
aS'depth'
p3755
aS'mbar'
p3756
ag5
aS'For Ferret'
p3757
asS'3096'
p3758
(lp3759
S'LON'
p3760
aS'Longitude (North Star GPS)    '
p3761
aS'lon'
p3762
aS'degree_east'
p3763
aS'F9.5'
p3764
aS'Longitude'
p3765
asS'3095'
p3766
(lp3767
S'LON'
p3768
aS'Longitude (Trimble P-code GPS)'
p3769
aS'lon'
p3770
aS'degree_east'
p3771
aS'F9.5'
p3772
aS'Longitude '
p3773
asS'4031'
p3774
(lp3775
S'rpres'
p3776
aS'RAW PRESSURE (MX2)'
p3777
aS'pres'
p3778
aS'counts'
p3779
aS'i10'
p3780
aS'mx-vacm with 2 mx-variables'
p3781
asS'4019'
p3782
(lp3783
S'tilta'
p3784
aS'TILT ANGLE               '
p3785
aS'tilt'
p3786
aS'degrees'
p3787
aS'f8.2'
p3788
aS'averaged instrument tilt FSIacm'
p3789
asS'4018'
p3790
(lp3791
S'tilty'
p3792
aS'TILT IN POD Y_Z PLANE    '
p3793
aS'tilt'
p3794
aS'degrees'
p3795
aS'f10.3'
p3796
aS'orientation of BASS pods'
p3797
asS'1979'
p3798
(lp3799
S'Ca    '
p3800
aS'Sub10micron Aerosol Calcium                      '
p3801
ag5
aS'ug/m^3'
p3802
ag5
ag5
asS'1978'
p3803
(lp3804
S'Ca    '
p3805
aS'Supermicron Aerosol Calcium                      '
p3806
ag5
aS'ug/m^3'
p3807
ag5
ag5
asS'1601'
p3808
(lp3809
S'IQ'
p3810
aS'WEPOCS QUALITY ID         '
p3811
aS'iq'
p3812
ag5
ag5
aS"Billy Kessler's WEPOCS CTD"
p3813
asS'1976'
p3814
(lp3815
S'Si    '
p3816
aS'Sub10micron Aerosol Silicon                      '
p3817
ag5
aS'ug/m^3'
p3818
ag5
ag5
asS'1975'
p3819
(lp3820
S'Si    '
p3821
aS'Supermicron Aerosol Silicon                      '
p3822
ag5
aS'ug/m^3'
p3823
ag5
ag5
asS'1974'
p3824
(lp3825
S'Si    '
p3826
aS'Submicron Aerosol Silicon                        '
p3827
ag5
aS'ug/m^3'
p3828
ag5
ag5
asS'1973'
p3829
(lp3830
S'Fe    '
p3831
aS'Sub10micron Aerosol Iron                         '
p3832
ag5
aS'ug/m^3'
p3833
ag5
ag5
asS'1972'
p3834
(lp3835
S'Fe    '
p3836
aS'Supermicron Aerosol Iron                         '
p3837
ag5
aS'ug/m^3'
p3838
ag5
ag5
asS'1971'
p3839
(lp3840
S'Fe    '
p3841
aS'Submicron Aerosol Iron                           '
p3842
ag5
aS'ug/m^3'
p3843
ag5
ag5
asS'1970'
p3844
(lp3845
S'Al    '
p3846
aS'Sub10micron Aerosol Aluminum                     '
p3847
ag5
aS'ug/m^3'
p3848
ag5
ag5
asS'4000'
p3849
(lp3850
S'upr'
p3851
aS'UPPER ROTOR SPEED     '
p3852
aS'rotor'
p3853
aS'counts'
p3854
aS'f10.1'
p3855
aS'basic measurement, vmcm'
p3856
asS'4032'
p3857
(lp3858
S'rpres'
p3859
aS'RAW PRESSURE (MX4)'
p3860
aS'pres'
p3861
aS'counts'
p3862
aS'i10'
p3863
aS'mx-vacm with 4 mx-variables'
p3864
asS'351'
p3865
(lp3866
S'HY '
p3867
aS'COMPASS HY               '
p3868
ag5
ag5
ag5
ag1
asS'350'
p3869
(lp3870
S'HX '
p3871
aS'COMPASS HX               '
p3872
ag5
ag5
ag5
ag1
asS'4002'
p3873
(lp3874
S'lowr'
p3875
aS'LOWER ROTOR SPEED    '
p3876
aS'rotor'
p3877
aS'counts'
p3878
aS'f10.1'
p3879
aS'basic measurement, vmcm'
p3880
asS'4003'
p3881
(lp3882
S'lowr'
p3883
aS'LOWER ROTOR SPEED    '
p3884
aS'rotor'
p3885
aS'cm/s'
p3886
aS'f10.3'
p3887
aS'interval lower rotor speed, Seadata tripod'
p3888
asS'210'
p3889
(lp3890
S'SL '
p3891
aS'GEOSAT SEA LEVEL (M)     '
p3892
ag5
ag52
ag5
aS'Mean value over grid block'
p3893
asS'1236'
p3894
(lp3895
S'Sv4 '
p3896
aS'Backscattering Strength Beam 4'
p3897
aS'Sv'
p3898
aS'dB'
p3899
ag5
aS'ADCP Bksctr., ref to noise cal'
p3900
asS'4004'
p3901
(lp3902
S'rdif'
p3903
aS'ROTOR SPEED DIFFERENCE  '
p3904
aS'rotor'
p3905
aS'cm/s'
p3906
aS'f10.3'
p3907
aS'difference, interval rotor speed, Seadata tripod'
p3908
asS'4005'
p3909
(lp3910
S'rot'
p3911
aS'ROTOR COUNTS             '
p3912
aS'rotor'
p3913
aS'counts'
p3914
aS'i10'
p3915
aS'vacm rotor counter'
p3916
asS'4006'
p3917
(lp3918
S'rspd'
p3919
aS'ROTOR SPEED             '
p3920
aS'speed'
p3921
aS'cm s-1'
p3922
aS'f8.2'
p3923
aS'scalar speed from rotor counts'
p3924
asS'3040'
p3925
(lp3926
S'SD'
p3927
aS'Ship Heading           '
p3928
aS'SD'
p3929
aS'degrees'
p3930
aS'f10.2'
p3931
aS'ship heading'
p3932
asS'4007'
p3933
(lp3934
S'vspd'
p3935
aS'VECTOR SPEED            '
p3936
aS'vspd'
p3937
aS'cm s-1'
p3938
aS'f8.2'
p3939
aS'vector speed from U and V'
p3940
asS'289'
p3941
(lp3942
S'NH4'
p3943
aS'AMMONIUM (micromoles/kg) '
p3944
aS'NH4'
p3945
aS'umol/kg'
p3946
ag5
ag1
asS'288'
p3947
(lp3948
S'SI '
p3949
aS'SILICATE (micromoles/kg) '
p3950
aS'SiO4'
p3951
aS'uM/kg'
p3952
ag5
aS'From Jim Murray'
p3953
asS'4'
p3954
(lp3955
S'P  '
p3956
aS'PRESSURE (PASCALS)       '
p3957
aS'depth'
p3958
aS'Pa'
p3959
ag5
ag1
asS'282'
p3960
(lp3961
S'NO3'
p3962
aS'NITRATE (micromoles/kg)  '
p3963
aS'NO3'
p3964
aS'uM/kg'
p3965
ag5
aS'From Jim Murray'
p3966
asS'284'
p3967
(lp3968
S'NO2'
p3969
aS'NITRITE (micromoles/kg)  '
p3970
aS'NO2'
p3971
aS'uM/kg'
p3972
ag5
aS'From Jim Murray'
p3973
asS'287'
p3974
(lp3975
S'UR '
p3976
aS'UREA (micromoles/kg)     '
p3977
aS'UR'
p3978
aS'uM/kg'
p3979
ag5
aS'From Jim Murray'
p3980
asS'286'
p3981
(lp3982
S'PO4'
p3983
aS'PHOSPHATE (micromoles/kg)'
p3984
aS'PO4'
p3985
aS'uM/kg'
p3986
ag5
aS'From Jim Murray'
p3987
asS'3005'
p3988
(lp3989
S'sAT'
p3990
aS'seas air temp'
p3991
aS'atemp'
p3992
aS'degree C'
p3993
aS'f10.2'
p3994
aS'seas air temp'
p3995
asS'3038'
p3996
(lp3997
S'su'
p3998
aS'gps ship u component'
p3999
aS'su'
p4000
aS'knots'
p4001
aS'f10.2'
p4002
aS'ship east vel'
p4003
asS'3039'
p4004
(lp4005
S'sv'
p4006
aS'gps ship v component'
p4007
aS'sv'
p4008
aS'knots'
p4009
aS'f10.2'
p4010
aS'ship north vel'
p4011
asS'3004'
p4012
(lp4013
S'sWB'
p4014
aS'seas wet bulb temp'
p4015
aS'wbT'
p4016
aS'degree C'
p4017
aS'f10.2'
p4018
aS'seas wet bulb temp'
p4019
asS'55'
p4020
(lp4021
S'ATTN'
p4022
aS'ATTENUATION             '
p4023
aS'attn'
p4024
aS'm-1'
p4025
aS'f7.5'
p4026
aS'added for r2d2 ctd data'
p4027
asS'54'
p4028
(lp4029
S'C2  '
p4030
aS'Secondary Conductivity  '
p4031
aS'con'
p4032
aS'mmho/cm'
p4033
ag5
ag1
asS'3036'
p4034
(lp4035
S'SD'
p4036
aS'gps ship direction'
p4037
aS'SD'
p4038
aS'degrees'
p4039
aS'f10.2'
p4040
aS'ship direction'
p4041
asS'56'
p4042
(lp4043
S'NEP'
p4044
aS'BACKSCATTER INTENSITY    '
p4045
aS'nephylometer'
p4046
ag211
aS'f10.6'
p4047
aS' added for Dave Pashinski'
p4048
asS'51'
p4049
(lp4050
S'C  '
p4051
aS'CONDUCTIVITY             '
p4052
aS'con'
p4053
aS'S/m'
p4054
aS'f10.3'
p4055
ag1
asS'50'
p4056
(lp4057
S'C  '
p4058
aS'CONDUCTIVITY             '
p4059
aS'con'
p4060
aS'mmho/cm'
p4061
ag5
ag1
asS'53'
p4062
(lp4063
S'rcon'
p4064
aS'RAW CONDUCTIVITY (VACM) '
p4065
aS'cond'
p4066
aS'counts'
p4067
aS'i10'
p4068
aS'vacm raw conductivity'
p4069
asS'52'
p4070
(lp4071
S'rcon'
p4072
aS'RAW CONDUCTIVITY (SEABIRD)'
p4073
aS'cond'
p4074
aS'counts'
p4075
aS'i10'
p4076
aS'Seabird cell raw conductivity'
p4077
asS'3034'
p4078
(lp4079
S'rWD'
p4080
aS'RMY true direction'
p4081
aS'WD'
p4082
aS'degree'
p4083
aS'f10.2'
p4084
aS'oc true direction'
p4085
asS'3035'
p4086
(lp4087
S'rWS'
p4088
aS'RMY wind speed'
p4089
aS'WS'
p4090
aS'knots'
p4091
aS'f10.2'
p4092
aS'oc wind speed'
p4093
asS'1411'
p4094
(lp4095
S'bear'
p4096
aS'bearing (m)      '
p4097
aS'dir'
p4098
aS'degreeM'
p4099
aS'f8.2'
p4100
aS'instantaneous dir., magnetic north (oceanographic)'
p4101
asS'1412'
p4102
(lp4103
S'bear'
p4104
aS'bearing (t)      '
p4105
aS'dir'
p4106
aS'degreeT'
p4107
aS'f8.2'
p4108
aS'instantaneous dir., true north (oceanographic)'
p4109
asS'1413'
p4110
(lp4111
S'bear'
p4112
aS'bearing (r)      '
p4113
aS'dir'
p4114
aS'degrees'
p4115
aS'f8.2'
p4116
aS'instantaneous dir., rotated (oceanographic)'
p4117
asS'1414'
p4118
(lp4119
S'vdir'
p4120
aS'vector direction (m)'
p4121
aS'vdir'
p4122
aS'degreeM'
p4123
aS'f8.2'
p4124
aS'averaged dir., magnetic north (oceanographic)'
p4125
asS'1415'
p4126
(lp4127
S'vdir'
p4128
aS'vector direction (t)'
p4129
aS'vdir'
p4130
aS'degreeT'
p4131
aS'f8.2'
p4132
aS'averaged dir., true north (oceanographic)'
p4133
asS'1416'
p4134
(lp4135
S'vdir'
p4136
aS'vector direction (r)'
p4137
aS'vdir'
p4138
aS'degrees'
p4139
aS'f8.2'
p4140
aS'averaged dir., rotated (oceanographic)'
p4141
asS'3037'
p4142
(lp4143
S'SS'
p4144
aS'gps ship speed'
p4145
aS'SS'
p4146
aS'knots'
p4147
aS'f10.2'
p4148
aS'ship speed'
p4149
asS'3003'
p4150
(lp4151
S'sBP'
p4152
aS'seas barometric pressure'
p4153
aS'BP'
p4154
aS'mbs'
p4155
aS'f10.2'
p4156
aS'seas barometric pressure'
p4157
asS'3030'
p4158
(lp4159
S'light'
p4160
aS'light intensity'
p4161
aS'light'
p4162
aS'volts'
p4163
aS'f10.2'
p4164
aS'light intensity'
p4165
asS'980'
p4166
(lp4167
S'Trb '
p4168
aS'Turbidity(FNU)          '
p4169
aS'turb'
p4170
aS'FNU'
p4171
aS'f10.2'
p4172
aS'formazin nephelometric units'
p4173
asS'981'
p4174
(lp4175
S'Sed'
p4176
aS'Sediment concentration   '
p4177
aS'sed'
p4178
aS'g/l'
p4179
aS'f10.2'
p4180
aS'sediment concentration'
p4181
asS'3031'
p4182
(lp4183
S'fluor'
p4184
aS'fluorometer'
p4185
aS'fluor'
p4186
aS'volts'
p4187
aS'f10.2'
p4188
aS'fluorometer'
p4189
asS'115'
p4190
(lp4191
S'BAT3'
p4192
aS'BATTERY VOLTAGE 3       '
p4193
aS'bat'
p4194
aS'volts'
p4195
aS'f10.3'
p4196
ag1
asS'114'
p4197
(lp4198
S'BAT2'
p4199
aS'BATTERY VOLTAGE 2       '
p4200
aS'bat'
p4201
aS'volts'
p4202
aS'f10.3'
p4203
ag1
asS'111'
p4204
(lp4205
S'OXT'
p4206
aS'OXYGEN TEMPERATURE       '
p4207
ag5
ag5
ag5
ag1
asS'110'
p4208
(lp4209
S'OXC'
p4210
aS'OXYGEN CURRENT           '
p4211
ag5
ag5
ag5
ag1
asS'113'
p4212
(lp4213
S'BAT1'
p4214
aS'BATTERY VOLTAGE 1       '
p4215
aS'bat'
p4216
aS'volts'
p4217
aS'f10.3'
p4218
ag1
asS'112'
p4219
(lp4220
S'DOC'
p4221
aS'dOXC/dt                  '
p4222
ag5
ag5
ag5
aS'Time rate of change of Oxygen current'
p4223
asS'4202'
p4224
(lp4225
S'BTLNBR_FLAG'
p4226
aS'Bottle Number Flag '
p4227
aS'flag'
p4228
ag5
ag5
ag1
asS'4203'
p4229
(lp4230
S'CTDPRS'
p4231
aS'Pressure                '
p4232
aS'depth'
p4233
aS'dbar'
p4234
aS'f9.1'
p4235
ag1
asS'9993'
p4236
(lp4237
S'z'
p4238
aS'z axis'
p4239
ag4238
ag5
ag5
aS'z axis'
p4240
asS'3033'
p4241
(lp4242
S'EQdep'
p4243
aS'EQ50 depth'
p4244
aS'depth'
p4245
aS'meters'
p4246
aS'f10.1'
p4247
aS'depth from MF EQ50'
p4248
asS'9994'
p4249
(lp4250
S't'
p4251
aS't axis'
p4252
ag4251
ag5
ag5
aS't axis '
p4253
asS'4204'
p4254
(lp4255
S'CTDPRS_FLAG'
p4256
aS'Pressure Flag      '
p4257
aS'flag'
p4258
ag5
ag5
ag1
asS'4311'
p4259
(lp4260
S'FiltXCO2a'
p4261
aS'Filtered Mole Fraction of CO2 in Air'
p4262
aS'XCO2'
p4263
aS'ppm'
p4264
aS'f9.1'
p4265
aS'Underway CO2 obs'
p4266
asS'1851'
p4267
(lp4268
S'CN  '
p4269
aS'Total Particles Dp>12nm '
p4270
ag5
aS'cm-3'
p4271
ag5
aS'condensation nuclei'
p4272
asS'1852'
p4273
(lp4274
S'UFCN'
p4275
aS'Total Particles Dp>3nm  '
p4276
ag5
aS'cm-3'
p4277
ag5
aS'ultrafine condensation nuclei'
p4278
asS'1853'
p4279
(lp4280
S'CN  '
p4281
aS'Total Particles Dp>13nm '
p4282
ag5
aS'cm-3'
p4283
ag5
aS'condensation nuclei'
p4284
asS'4271'
p4285
(lp4286
S'ALKALI '
p4287
aS'Alkalinity             '
p4288
aS'alk'
p4289
aS'umol/kg'
p4290
aS'f9.1'
p4291
ag1
asS'4001'
p4292
(lp4293
S'upr'
p4294
aS'UPPER ROTOR SPEED     '
p4295
aS'rotor'
p4296
aS'cm/s'
p4297
aS'f10.3'
p4298
aS'interval upper rotor speed, Seadata tripod'
p4299
asS'1254'
p4300
(lp4301
S'St4 '
p4302
aS'Status Beam 4               '
p4303
ag5
ag5
ag5
aS'ADCP Beam 4 Status'
p4304
asS'1255'
p4305
(lp4306
S'StBn'
p4307
aS'Bin Status                  '
p4308
ag5
ag5
ag5
aS'ADCP Bin Status'
p4309
asS'1252'
p4310
(lp4311
S'St2 '
p4312
aS'Status Beam 2               '
p4313
ag5
ag5
ag5
aS'ADCP Beam 2 Status'
p4314
asS'1253'
p4315
(lp4316
S'St3 '
p4317
aS'Status Beam 3               '
p4318
ag5
ag5
ag5
aS'ADCP Beam 3 Status'
p4319
asS'1251'
p4320
(lp4321
S'St1 '
p4322
aS'Status Beam 1               '
p4323
ag5
ag5
ag5
aS'ADCP Beam 1 Status'
p4324
asS'915'
p4325
(lp4326
S'BP '
p4327
aS'BAROMETRIC PRESSURE (MB) '
p4328
ag5
aS'mbar'
p4329
ag5
ag1
asS'420'
p4330
(lp4331
S'WU '
p4332
aS'WIND U (CM/S)            '
p4333
ag248
aS'cm s-1'
p4334
ag5
aS'oceanographic sense (going to)'
p4335
asS'917'
p4336
(lp4337
S'PAR'
p4338
aS'Photosynthetically Active Radiation'
p4339
aS'par'
p4340
aS'umol photons m-2 s-1'
p4341
aS'F7.1'
p4342
ag1
asS'916'
p4343
(lp4344
S'PAR'
p4345
aS'Photosynthetically Active Radiation'
p4346
aS'par'
p4347
ag851
aS'f5.2'
p4348
aS'PAR (instrument units)'
p4349
asS'911'
p4350
(lp4351
S'RH '
p4352
aS'RELATIVE HUMIDITY MIN (%)'
p4353
aS'rh'
p4354
ag617
ag5
ag1
asS'910'
p4355
(lp4356
S'RH '
p4357
aS'RELATIVE HUMIDITY (%)    '
p4358
aS'rh'
p4359
ag617
ag5
aS'PERCENT'
p4360
asS'913'
p4361
(lp4362
S'SH '
p4363
aS'SPECIFIC HUMIDITY (G/KG) '
p4364
ag5
aS'g kg-1'
p4365
ag5
aS'For Ferret'
p4366
asS'912'
p4367
(lp4368
S'RH '
p4369
aS'RELATIVE HUMIDITY MAX (%)'
p4370
aS'rh'
p4371
ag617
ag5
ag1
asS'300'
p4372
(lp4373
S'CS '
p4374
aS'CURRENT SPEED (CM/S)      '
p4375
aS'vspd'
p4376
aS'cm s-1'
p4377
aS'f8.2'
p4378
aS'oceanographic (going to)'
p4379
asS'301'
p4380
(lp4381
S'BS '
p4382
aS'DRIFTER BUOY SPEED (M/S) '
p4383
ag5
aS'm s-1'
p4384
ag5
aS'calculated from lat,lon'
p4385
asS'302'
p4386
(lp4387
S'BS '
p4388
aS'Drifter Buoy Speed (cm/s)'
p4389
ag5
aS'cm s-1'
p4390
ag5
aS'calculated from lat,lon'
p4391
asS'1933'
p4392
(lp4393
S'Ca    '
p4394
aS'Soluble Supermicron Aerosol Calcium              '
p4395
ag5
aS'ug/m^3'
p4396
ag5
ag5
asS'1932'
p4397
(lp4398
S'Ca    '
p4399
aS'Soluble Submicron Aerosol Calcium                '
p4400
ag5
aS'ug/m^3'
p4401
ag5
ag5
asS'1931'
p4402
(lp4403
S'Mg    '
p4404
aS'Soluble Sub10micron Aerosol Magnesium            '
p4405
ag5
aS'ug/m^3'
p4406
ag5
ag5
asS'1930'
p4407
(lp4408
S'Mg    '
p4409
aS'Soluble Supermicron Aerosol Magnesium            '
p4410
ag5
aS'ug/m^3'
p4411
ag5
ag5
asS'1937'
p4412
(lp4413
S'nssK  '
p4414
aS'Soluble Sub10micron Aerosol non-Seasalt Potassium'
p4415
ag5
aS'ug/m^3'
p4416
ag5
ag5
asS'1936'
p4417
(lp4418
S'nssK  '
p4419
aS'Soluble Supermicron Aerosol non-Seasalt Potassium'
p4420
ag5
aS'ug/m^3'
p4421
ag5
ag5
asS'1935'
p4422
(lp4423
S'nssK  '
p4424
aS'Soluble Submicron Aerosol non-Seasalt Potassium  '
p4425
ag5
aS'ug/m^3'
p4426
ag5
ag5
asS'1934'
p4427
(lp4428
S'Ca    '
p4429
aS'Soluble Sub10micron Aerosol Calcium              '
p4430
ag5
aS'ug/m^3'
p4431
ag5
ag1
asS'1939'
p4432
(lp4433
S'nssMg '
p4434
aS'Soluble Supermicron Aerosol non-Seasalt Magnesium'
p4435
ag5
aS'ug/m^3'
p4436
ag5
ag5
asS'1938'
p4437
(lp4438
S'nssMg '
p4439
aS'Soluble Submicron Aerosol non-Seasalt Magnesium  '
p4440
ag5
aS'ug/m^3'
p4441
ag5
ag5
asS'844'
p4442
(lp4443
S'S-2'
p4444
aS'SAL-2 STAND. DEV.        '
p4445
ag5
ag5
ag5
ag1
asS'843'
p4446
(lp4447
S'S+2'
p4448
aS'SAL+2 STAND. DEV.        '
p4449
ag5
ag5
ag5
ag1
asS'842'
p4450
(lp4451
S'SD-'
p4452
aS'SAL-STAND. DEV.          '
p4453
ag5
ag5
ag5
ag1
asS'841'
p4454
(lp4455
S'SD+'
p4456
aS'SAL+STAND. DEV.          '
p4457
ag5
ag5
ag5
ag1
asS'840'
p4458
(lp4459
S'SDS'
p4460
aS'STAND. DEV. (SAL)        '
p4461
ag5
ag5
ag5
ag1
asS'4291'
p4462
(lp4463
S'ARGOPRS_FLAG '
p4464
aS'Argo Pressure Flag    '
p4465
aS'flag'
p4466
ag5
ag5
ag1
asS'4293'
p4467
(lp4468
S'ARGOSAL_FLAG '
p4469
aS'Argo Salinity Flag    '
p4470
aS'flag'
p4471
ag5
ag5
ag1
asS'4292'
p4472
(lp4473
S'ARGOTMP_FLAG '
p4474
aS'Argo Temperature Flag '
p4475
aS'flag'
p4476
ag5
ag5
ag1
asS'4266'
p4477
(lp4478
S'DELC13_FLAG'
p4479
aS'Delta-C13 Flag     '
p4480
aS'flag'
p4481
ag5
ag5
ag1
asS'1208'
p4482
(lp4483
S'Png '
p4484
aS'Pings                    '
p4485
ag5
ag5
ag5
aS'ADCP Pings'
p4486
asS'1986'
p4487
(lp4488
S'Oxlate'
p4489
aS'Soluble Submicron Aerosol Oxalate                '
p4490
ag5
aS'ug/m^3'
p4491
ag5
ag1
asS'1987'
p4492
(lp4493
S'Oxlate'
p4494
aS'Soluble Supermicron Aerosol Oxalate              '
p4495
ag5
aS'ug/m^3'
p4496
ag5
ag1
asS'1984'
p4497
(lp4498
S'IOM   '
p4499
aS'Supermicron Aerosol Inorganic Oxidized Material  '
p4500
ag5
aS'ug/m^3'
p4501
ag5
ag5
asS'1985'
p4502
(lp4503
S'IOM   '
p4504
aS'Sub10micron Aerosol Inorganic Oxidized Material  '
p4505
ag5
aS'ug/m^3'
p4506
ag5
ag5
asS'1982'
p4507
(lp4508
S'Ti    '
p4509
aS'Sub10micron Aerosol Titanium                     '
p4510
ag5
aS'ug/m^3'
p4511
ag5
ag5
asS'1983'
p4512
(lp4513
S'IOM   '
p4514
aS'Submicron Aerosol Inorganic Oxidized Material    '
p4515
ag5
aS'ug/m^3'
p4516
ag5
ag5
asS'1980'
p4517
(lp4518
S'Ti    '
p4519
aS'Submicron Aerosol Titanium                       '
p4520
ag5
aS'ug/m^3'
p4521
ag5
ag5
asS'1981'
p4522
(lp4523
S'Ti    '
p4524
aS'Supermicron Aerosol Titanium                     '
p4525
ag5
aS'ug/m^3'
p4526
ag5
ag5
asS'1731'
p4527
(lp4528
S'F11CORR'
p4529
aS'CORRECTED CFC-11     '
p4530
aS'f11corr'
p4531
aS'pmol/kg'
p4532
aS'f10.6'
p4533
aS'corrected trichloroflouoromethane'
p4534
asS'1732'
p4535
(lp4536
S'F12CORR'
p4537
aS'CORRECTED CFC-12     '
p4538
aS'f12corr'
p4539
aS'pmol/kg'
p4540
aS'f10.6'
p4541
aS'corrected dichlorofluoromethane'
p4542
asS'1988'
p4543
(lp4544
S'Oxlate'
p4545
aS'Soluble Sub10micron Aerosol Oxalate              '
p4546
ag5
aS'ug/m^3'
p4547
ag5
ag1
asS'1989'
p4548
(lp4549
S'Br    '
p4550
aS'Soluble Submicron Aerosol Bromide                '
p4551
ag5
aS'ug/m^3'
p4552
ag5
ag5
asS'3070'
p4553
(lp4554
S'COG'
p4555
aS'Course Over Ground                     '
p4556
aS'COG'
p4557
aS'degrees_T'
p4558
aS'F6.2'
p4559
aS'Ship Course Over Ground'
p4560
asS'3071'
p4561
(lp4562
S'COG'
p4563
aS'Course Over Ground (Trimble P-code GPS)'
p4564
aS'COG'
p4565
aS'degrees_T'
p4566
aS'F6.2'
p4567
aS'Ship Course Over Ground'
p4568
asS'3072'
p4569
(lp4570
S'COG'
p4571
aS'Course Over Ground (North Star GPS)    '
p4572
aS'COG'
p4573
aS'degrees_T'
p4574
aS'F6.2'
p4575
aS'Ship Course Over Ground'
p4576
asS'221'
p4577
(lp4578
S'VAR'
p4579
aS'VARIANCE                 '
p4580
aS'var'
p4581
aS'cm s-1'
p4582
ag5
aS'sqrt(u**2 + v**2) (current variance) '
p4583
asS'220'
p4584
(lp4585
S'AZ '
p4586
aS'AZIMUTH                  '
p4587
aS'az'
p4588
aS'degrees'
p4589
aS'f8.2'
p4590
aS'measure of ice floe rotation'
p4591
asS'9999'
p4592
(lp4593
S'BINS'
p4594
aS'Sample Number, Sample Bins             '
p4595
aS'bins'
p4596
aS'#'
p4597
ag5
ag1
asS'9998'
p4598
(lp4599
S'DESCENT'
p4600
aS'Descent Rate, Descent Rate of CTD             '
p4601
aS'descent'
p4602
aS'm/s'
p4603
ag5
ag1
asS'722'
p4604
(lp4605
S'EV '
p4606
aS'ERROR VELOCITY           '
p4607
ag5
ag5
ag5
aS'RD Acoustic Doppler'
p4608
asS'723'
p4609
(lp4610
S'AMP'
p4611
aS'AMPLITUDE                '
p4612
ag5
ag5
ag5
aS'RD Acoustic Doppler'
p4613
asS'721'
p4614
(lp4615
S'PG '
p4616
aS'PERCENT GOOD PINGS       '
p4617
ag5
ag5
ag5
aS'Acoustic Doppler'
p4618
asS'150'
p4619
(lp4620
S'FR '
p4621
aS'FREON                    '
p4622
ag5
ag5
ag5
ag1
asS'152'
p4623
(lp4624
S'NO3'
p4625
aS'NITRATE (MG AT/L)        '
p4626
aS'NO3'
p4627
aS'mg at/l'
p4628
ag5
ag1
asS'601'
p4629
(lp4630
S'TIM'
p4631
aS'TIME                     '
p4632
aS'time'
p4633
ag5
ag5
aS'units since YYYY-MM-dd hh'
p4634
aS'mm'
p4635
aS'ss'
p4636
asS'600'
p4637
(lp4638
S'TIM'
p4639
aS'TIME (EPIC)              '
p4640
aS'time'
p4641
ag5
aS'f10.0'
p4642
aS'EPIC Time series time hhmm as real number'
p4643
asS'157'
p4644
(lp4645
S'Ptl'
p4646
aS'TOTAL PHOSPHORUS         '
p4647
ag5
aS'mg at/l'
p4648
ag5
aS'J. Reid data '
p4649
asS'156'
p4650
(lp4651
S'PO4'
p4652
aS'PHOSPHATE (MG AT/L)      '
p4653
aS'PO4'
p4654
aS'mg at/l'
p4655
ag5
ag1
asS'159'
p4656
(lp4657
S'pH '
p4658
aS'pH                       '
p4659
ag5
ag5
ag5
aS'J. Reid data'
p4660
asS'158'
p4661
(lp4662
S'SI '
p4663
aS'SILICATE (MG AT/L)       '
p4664
aS'SiO4'
p4665
aS'mg at/l'
p4666
ag5
aS'mg at/l'
p4667
asS'1207'
p4668
(lp4669
S'Rec '
p4670
aS'Records                  '
p4671
ag5
ag5
ag5
aS'ADCP Records'
p4672
asS'1206'
p4673
(lp4674
S'v   '
p4675
aS'Northward Velocity       '
p4676
ag211
aS'cm/s'
p4677
ag5
aS'Northward Velocity'
p4678
asS'1201'
p4679
(lp4680
S'Werr'
p4681
aS'Error Velocity           '
p4682
ag2479
aS'cm/s'
p4683
aS'F8.1'
p4684
aS'ADCP Error Velocity'
p4685
asS'1200'
p4686
(lp4687
S'Tim '
p4688
aS'Ensemble Length          '
p4689
aS'ens_length'
p4690
ag1803
ag5
aS'ADCP Ensemble Length'
p4691
asS'1203'
p4692
(lp4693
S'PGd '
p4694
aS'Percent Good Pings       '
p4695
ag5
ag5
ag5
aS'ADCP Percent Good Pings'
p4696
asS'1202'
p4697
(lp4698
S'AGC '
p4699
aS'Avg. Echo Intensity (AGC)'
p4700
aS'AGC'
p4701
aS'counts'
p4702
aS'F5.1'
p4703
aS'ADCP Beam Averaged AGC'
p4704
asS'9991'
p4705
(lp4706
S'x'
p4707
aS'x axis'
p4708
ag4707
ag5
ag5
aS'x axis'
p4709
asS'4270'
p4710
(lp4711
S'TCARBN_FLAG'
p4712
aS'Total Carbon Flag  '
p4713
aS'flag'
p4714
ag5
ag5
ag1
asS'1894'
p4715
(lp4716
S'SAAb1'
p4717
aS'Submicron Aerosol Absorbance at wavelength 1'
p4718
ag5
aS'Mm-1'
p4719
aS'  '
p4720
ag1
asS'1895'
p4721
(lp4722
S'SAAb2'
p4723
aS'Submicron Aerosol Absorbance at wavelength 2'
p4724
ag5
aS'Mm-1'
p4725
aS'  '
p4726
ag1
asS'1896'
p4727
(lp4728
S'SAAb3'
p4729
aS'Submicron Aerosol Absorbance at wavelength 3'
p4730
ag5
aS'Mm-1'
p4731
aS'  '
p4732
ag1
asS'1890'
p4733
(lp4734
S'AOD10'
p4735
aS'Aerosol Optical Depth Ch-10'
p4736
ag5
ag5
ag5
ag1
asS'1891'
p4737
(lp4738
S'AAb1'
p4739
aS'Aerosol Absorbance at wavelength 1'
p4740
ag5
aS'Mm-1'
p4741
aS'  '
p4742
ag1
asS'1892'
p4743
(lp4744
S'AAb2'
p4745
aS'Aerosol Absorbance at wavelength 2'
p4746
ag5
aS'Mm-1'
p4747
aS'  '
p4748
ag1
asS'1893'
p4749
(lp4750
S'AAb3'
p4751
aS'Aerosol Absorbance at wavelength 3'
p4752
ag5
aS'Mm-1'
p4753
aS'  '
p4754
ag1
asS'398'
p4755
(lp4756
S'DRG'
p4757
aS'DRAG ON MOORING LINE     '
p4758
ag5
ag5
ag5
ag1
asS'48'
p4759
(lp4760
S'SpC '
p4761
aS'Specific Conductance    '
p4762
aS'con'
p4763
aS'mS/cm'
p4764
aS'f10.3'
p4765
aS'temperature compensated to 25C'
p4766
asS'49'
p4767
(lp4768
S'S  '
p4769
aS'SALINITY                 '
p4770
aS'sal'
p4771
ag5
aS'f10.2'
p4772
aS"calculated for XBT's from mean T-S curve, M McCarty"
p4773
asS'951'
p4774
(lp4775
S'DP '
p4776
aS'Dew Point                '
p4777
ag5
aS'degree C'
p4778
ag5
ag1
asS'44'
p4779
(lp4780
S'S3 '
p4781
aS'Alternate Salinity       '
p4782
aS'sal'
p4783
ag5
ag5
aS'Practical Salinity Units'
p4784
asS'45'
p4785
(lp4786
S'S4 '
p4787
aS'Alternate Salinity       '
p4788
aS'sal'
p4789
ag5
ag5
aS'Practical Salinity Units'
p4790
asS'42'
p4791
(lp4792
S'S  '
p4793
aS'SALINITY (PSU)           '
p4794
aS'sal'
p4795
aS'PSU'
p4796
ag5
aS'Practical Salinity Units'
p4797
asS'43'
p4798
(lp4799
S'S0 '
p4800
aS'BOTTLE SALINITY (PSU)    '
p4801
aS'sal'
p4802
aS'PSU'
p4803
ag5
aS'From Salinometer. 1E35 indicates no sample.'
p4804
asS'40'
p4805
(lp4806
S'S  '
p4807
aS'SALINITY (PPT)           '
p4808
aS'sal'
p4809
aS'PPT'
p4810
aS'f10.2'
p4811
aS'From SALIN1'
p4812
asS'41'
p4813
(lp4814
S'S  '
p4815
aS'SALINITY (PSU)           '
p4816
aS'sal'
p4817
aS'PSU'
p4818
ag5
aS'Practical Salinity Units'
p4819
asS'5'
p4820
(lp4821
S'PD '
p4822
aS'PRESSURE DIFFERENCE (DB) '
p4823
aS'depth'
p4824
aS'dbar'
p4825
ag5
ag1
asS'1292'
p4826
(lp4827
S'dac '
p4828
aS'ADCP DAC output           '
p4829
aS'dac'
p4830
aS'counts'
p4831
aS'i10'
p4832
ag1
asS'1293'
p4833
(lp4834
S'vdc '
p4835
aS'ADCP VDC voltage          '
p4836
aS'vdc'
p4837
aS'volts'
p4838
aS'f10.3'
p4839
ag1
asS'1290'
p4840
(lp4841
S'xmtc'
p4842
aS'ADCP transmit current     '
p4843
aS'xmitc'
p4844
aS'amps'
p4845
aS'f10.3'
p4846
ag1
asS'1291'
p4847
(lp4848
S'xmtv'
p4849
aS'ADCP transmit voltage     '
p4850
aS'xmitv'
p4851
aS'volts'
p4852
aS'f10.3'
p4853
ag1
asS'1294'
p4854
(lp4855
S'P'
p4856
aS'ADCP Pressure'
p4857
aS'pres'
p4858
aS'deca-pascals'
p4859
aS'F15.2'
p4860
aS'ADCP Pressure at Transducer Head'
p4861
asS'1295'
p4862
(lp4863
S'PVAR'
p4864
aS'ADCP Pressure Variance'
p4865
aS'pvar'
p4866
aS'deca-pascals'
p4867
aS'F15.2'
p4868
aS'ADCP Pressure Variance at Transducer Head'
p4869
asS'4091'
p4870
(lp4871
S'w   '
p4872
aS'instant vertical velocity '
p4873
ag2479
aS'cm s-1'
p4874
aS'f8.2'
p4875
aS'instantaneous vertical velocity FSIacm'
p4876
asS'1219'
p4877
(lp4878
S'PSD '
p4879
aS'Pitch Std. Dev.          '
p4880
aS'ptch'
p4881
aS'degrees'
p4882
ag5
aS'ADCP Pitch Std. Dev.'
p4883
asS'4096'
p4884
(lp4885
S'rn  '
p4886
aS'north register            '
p4887
ag211
aS'counts'
p4888
aS'i10'
p4889
aS'vacm north register'
p4890
asS'4095'
p4891
(lp4892
S're  '
p4893
aS'east register             '
p4894
ag248
aS'counts'
p4895
aS'i10'
p4896
aS'vacm east register'
p4897
asS'4045'
p4898
(lp4899
S'rtemp'
p4900
aS'RAW TEMPERATURE (MX2)'
p4901
aS'temp'
p4902
aS'counts'
p4903
aS'i10'
p4904
aS'mx-vacm with 2 mx-variables'
p4905
asS'4046'
p4906
(lp4907
S'rtemp'
p4908
aS'RAW TEMPERATURE (MX4)'
p4909
aS'temp'
p4910
aS'counts'
p4911
aS'i10'
p4912
aS'mx-vacm with 4 mx-variables'
p4913
asS'485'
p4914
(lp4915
S'RN '
p4916
aS'RAIN                     '
p4917
ag5
aS'MM'
p4918
ag5
aS'Rainfall derived from OLR'
p4919
asS'480'
p4920
(lp4921
S'OLR'
p4922
aS'OLR                      '
p4923
ag5
aS'W/M**2'
p4924
ag5
aS'Outgoing long wave radiation'
p4925
asS'1807'
p4926
(lp4927
S'O3  '
p4928
aS'Ozone                   '
p4929
aS'o3'
p4930
aS'ppb'
p4931
ag5
ag1
asS'1806'
p4932
(lp4933
S'COe '
p4934
aS'COequilibrator          '
p4935
aS'co'
p4936
aS'ppb'
p4937
ag5
ag1
asS'1805'
p4938
(lp4939
S'COw '
p4940
aS'COwater                 '
p4941
aS'co'
p4942
aS'nmol/L'
p4943
ag5
ag1
asS'1804'
p4944
(lp4945
S'COa '
p4946
aS'COair                   '
p4947
aS'co'
p4948
aS'ppb'
p4949
ag5
ag1
asS'1803'
p4950
(lp4951
S'CH4e'
p4952
aS'CH4equilibrator         '
p4953
aS'ch4'
p4954
aS'ppb'
p4955
ag5
ag1
asS'1802'
p4956
(lp4957
S'CH4w'
p4958
aS'CH4water                '
p4959
aS'ch4'
p4960
aS'nmol/L'
p4961
ag5
ag1
asS'1801'
p4962
(lp4963
S'CH4a'
p4964
aS'CH4air                  '
p4965
aS'ch4'
p4966
aS'ppb'
p4967
ag5
ag1
asS'1800'
p4968
(lp4969
S'Teq '
p4970
aS'Equilibrator Temperature'
p4971
ag5
aS'degree C'
p4972
aS'f10.2'
p4973
ag1
asS'1809'
p4974
(lp4975
S'DMSw'
p4976
aS'DMSwater                '
p4977
aS'dms'
p4978
aS'nmol/L'
p4979
ag5
ag1
asS'1808'
p4980
(lp4981
S'DMSa'
p4982
aS'DMSair                  '
p4983
aS'dms'
p4984
aS'ppt'
p4985
ag5
ag1
asS'1862'
p4986
(lp4987
S'ASG '
p4988
aS'Aerosol Scat Green      '
p4989
ag5
aS'Mm-1'
p4990
ag5
ag1
as.